
avr-from-asf.elf:     file format elf32-avr

Sections:
Idx Name          Size      VMA       LMA       File off  Algn
  0 .text         0000260c  00000000  00000000  00000094  2**1
                  CONTENTS, ALLOC, LOAD, READONLY, CODE
  1 .BOOT         00000044  0000260c  0000260c  000026a0  2**0
                  CONTENTS, ALLOC, LOAD, READONLY, CODE
  2 .data         000004a4  00802000  00002650  000026e4  2**0
                  CONTENTS, ALLOC, LOAD, DATA
  3 .bss          00000219  008024a4  008024a4  00002b88  2**0
                  ALLOC
  4 .comment      00000027  00000000  00000000  00002b88  2**0
                  CONTENTS, READONLY
  5 .debug_info   00003409  00000000  00000000  00002baf  2**0
                  CONTENTS, READONLY, DEBUGGING
  6 .debug_abbrev 00003148  00000000  00000000  00005fb8  2**0
                  CONTENTS, READONLY, DEBUGGING
  7 .debug_line   0000001d  00000000  00000000  00009100  2**0
                  CONTENTS, READONLY, DEBUGGING
  8 .debug_str    0000223b  00000000  00000000  0000911d  2**0
                  CONTENTS, READONLY, DEBUGGING

Disassembly of section .text:

00000000 <__vectors>:
       0:	0c 94 fe 00 	jmp	0x1fc	; 0x1fc <__ctors_end>
       4:	0c 94 1d 01 	jmp	0x23a	; 0x23a <__bad_interrupt>
       8:	0c 94 1d 01 	jmp	0x23a	; 0x23a <__bad_interrupt>
       c:	0c 94 1d 01 	jmp	0x23a	; 0x23a <__bad_interrupt>
      10:	0c 94 1d 01 	jmp	0x23a	; 0x23a <__bad_interrupt>
      14:	0c 94 1d 01 	jmp	0x23a	; 0x23a <__bad_interrupt>
      18:	0c 94 1d 01 	jmp	0x23a	; 0x23a <__bad_interrupt>
      1c:	0c 94 1d 01 	jmp	0x23a	; 0x23a <__bad_interrupt>
      20:	0c 94 1d 01 	jmp	0x23a	; 0x23a <__bad_interrupt>
      24:	0c 94 1d 01 	jmp	0x23a	; 0x23a <__bad_interrupt>
      28:	0c 94 1d 01 	jmp	0x23a	; 0x23a <__bad_interrupt>
      2c:	0c 94 1d 01 	jmp	0x23a	; 0x23a <__bad_interrupt>
      30:	0c 94 1d 01 	jmp	0x23a	; 0x23a <__bad_interrupt>
      34:	0c 94 1d 01 	jmp	0x23a	; 0x23a <__bad_interrupt>
      38:	0c 94 1d 01 	jmp	0x23a	; 0x23a <__bad_interrupt>
      3c:	0c 94 1d 01 	jmp	0x23a	; 0x23a <__bad_interrupt>
      40:	0c 94 1d 01 	jmp	0x23a	; 0x23a <__bad_interrupt>
      44:	0c 94 1d 01 	jmp	0x23a	; 0x23a <__bad_interrupt>
      48:	0c 94 1d 01 	jmp	0x23a	; 0x23a <__bad_interrupt>
      4c:	0c 94 1d 01 	jmp	0x23a	; 0x23a <__bad_interrupt>
      50:	0c 94 1d 01 	jmp	0x23a	; 0x23a <__bad_interrupt>
      54:	0c 94 1d 01 	jmp	0x23a	; 0x23a <__bad_interrupt>
      58:	0c 94 1d 01 	jmp	0x23a	; 0x23a <__bad_interrupt>
      5c:	0c 94 1d 01 	jmp	0x23a	; 0x23a <__bad_interrupt>
      60:	0c 94 1d 01 	jmp	0x23a	; 0x23a <__bad_interrupt>
      64:	0c 94 1d 01 	jmp	0x23a	; 0x23a <__bad_interrupt>
      68:	0c 94 1d 01 	jmp	0x23a	; 0x23a <__bad_interrupt>
      6c:	0c 94 1d 01 	jmp	0x23a	; 0x23a <__bad_interrupt>
      70:	0c 94 1d 01 	jmp	0x23a	; 0x23a <__bad_interrupt>
      74:	0c 94 1d 01 	jmp	0x23a	; 0x23a <__bad_interrupt>
      78:	0c 94 1d 01 	jmp	0x23a	; 0x23a <__bad_interrupt>
      7c:	0c 94 1d 01 	jmp	0x23a	; 0x23a <__bad_interrupt>
      80:	0c 94 1d 01 	jmp	0x23a	; 0x23a <__bad_interrupt>
      84:	0c 94 1d 01 	jmp	0x23a	; 0x23a <__bad_interrupt>
      88:	0c 94 1d 01 	jmp	0x23a	; 0x23a <__bad_interrupt>
      8c:	0c 94 1d 01 	jmp	0x23a	; 0x23a <__bad_interrupt>
      90:	0c 94 1d 01 	jmp	0x23a	; 0x23a <__bad_interrupt>
      94:	0c 94 1d 01 	jmp	0x23a	; 0x23a <__bad_interrupt>
      98:	0c 94 1d 01 	jmp	0x23a	; 0x23a <__bad_interrupt>
      9c:	0c 94 a9 05 	jmp	0xb52	; 0xb52 <__vector_39>
      a0:	0c 94 db 05 	jmp	0xbb6	; 0xbb6 <__vector_40>
      a4:	0c 94 0d 06 	jmp	0xc1a	; 0xc1a <__vector_41>
      a8:	0c 94 3f 06 	jmp	0xc7e	; 0xc7e <__vector_42>
      ac:	0c 94 1d 01 	jmp	0x23a	; 0x23a <__bad_interrupt>
      b0:	0c 94 1d 01 	jmp	0x23a	; 0x23a <__bad_interrupt>
      b4:	0c 94 1d 01 	jmp	0x23a	; 0x23a <__bad_interrupt>
      b8:	0c 94 1d 01 	jmp	0x23a	; 0x23a <__bad_interrupt>
      bc:	0c 94 1d 01 	jmp	0x23a	; 0x23a <__bad_interrupt>
      c0:	0c 94 1d 01 	jmp	0x23a	; 0x23a <__bad_interrupt>
      c4:	0c 94 1d 01 	jmp	0x23a	; 0x23a <__bad_interrupt>
      c8:	0c 94 1d 01 	jmp	0x23a	; 0x23a <__bad_interrupt>
      cc:	0c 94 1d 01 	jmp	0x23a	; 0x23a <__bad_interrupt>
      d0:	0c 94 1d 01 	jmp	0x23a	; 0x23a <__bad_interrupt>
      d4:	0c 94 1d 01 	jmp	0x23a	; 0x23a <__bad_interrupt>
      d8:	0c 94 1d 01 	jmp	0x23a	; 0x23a <__bad_interrupt>
      dc:	0c 94 1d 01 	jmp	0x23a	; 0x23a <__bad_interrupt>
      e0:	0c 94 1d 01 	jmp	0x23a	; 0x23a <__bad_interrupt>
      e4:	0c 94 1d 01 	jmp	0x23a	; 0x23a <__bad_interrupt>
      e8:	0c 94 1d 01 	jmp	0x23a	; 0x23a <__bad_interrupt>
      ec:	0c 94 1d 01 	jmp	0x23a	; 0x23a <__bad_interrupt>
      f0:	0c 94 1d 01 	jmp	0x23a	; 0x23a <__bad_interrupt>
      f4:	0c 94 1d 01 	jmp	0x23a	; 0x23a <__bad_interrupt>
      f8:	0c 94 1d 01 	jmp	0x23a	; 0x23a <__bad_interrupt>
      fc:	0c 94 1d 01 	jmp	0x23a	; 0x23a <__bad_interrupt>
     100:	0c 94 1d 01 	jmp	0x23a	; 0x23a <__bad_interrupt>
     104:	0c 94 1d 01 	jmp	0x23a	; 0x23a <__bad_interrupt>
     108:	0c 94 1d 01 	jmp	0x23a	; 0x23a <__bad_interrupt>
     10c:	0c 94 1d 01 	jmp	0x23a	; 0x23a <__bad_interrupt>
     110:	0c 94 1d 01 	jmp	0x23a	; 0x23a <__bad_interrupt>
     114:	0c 94 1d 01 	jmp	0x23a	; 0x23a <__bad_interrupt>
     118:	0c 94 1d 01 	jmp	0x23a	; 0x23a <__bad_interrupt>
     11c:	0c 94 e1 04 	jmp	0x9c2	; 0x9c2 <__vector_71>
     120:	0c 94 13 05 	jmp	0xa26	; 0xa26 <__vector_72>
     124:	0c 94 45 05 	jmp	0xa8a	; 0xa8a <__vector_73>
     128:	0c 94 77 05 	jmp	0xaee	; 0xaee <__vector_74>
     12c:	0c 94 1d 01 	jmp	0x23a	; 0x23a <__bad_interrupt>
     130:	0c 94 1d 01 	jmp	0x23a	; 0x23a <__bad_interrupt>
     134:	0c 94 1d 01 	jmp	0x23a	; 0x23a <__bad_interrupt>
     138:	0c 94 1d 01 	jmp	0x23a	; 0x23a <__bad_interrupt>
     13c:	0c 94 1d 01 	jmp	0x23a	; 0x23a <__bad_interrupt>
     140:	0c 94 1d 01 	jmp	0x23a	; 0x23a <__bad_interrupt>
     144:	0c 94 1d 01 	jmp	0x23a	; 0x23a <__bad_interrupt>
     148:	0c 94 1d 01 	jmp	0x23a	; 0x23a <__bad_interrupt>
     14c:	0c 94 1d 01 	jmp	0x23a	; 0x23a <__bad_interrupt>
     150:	0c 94 1d 01 	jmp	0x23a	; 0x23a <__bad_interrupt>
     154:	0c 94 1d 01 	jmp	0x23a	; 0x23a <__bad_interrupt>
     158:	0c 94 1d 01 	jmp	0x23a	; 0x23a <__bad_interrupt>
     15c:	0c 94 1d 01 	jmp	0x23a	; 0x23a <__bad_interrupt>
     160:	0c 94 1d 01 	jmp	0x23a	; 0x23a <__bad_interrupt>
     164:	0c 94 1d 01 	jmp	0x23a	; 0x23a <__bad_interrupt>
     168:	0c 94 1d 01 	jmp	0x23a	; 0x23a <__bad_interrupt>
     16c:	0c 94 1d 01 	jmp	0x23a	; 0x23a <__bad_interrupt>
     170:	0c 94 1d 01 	jmp	0x23a	; 0x23a <__bad_interrupt>
     174:	0c 94 1d 01 	jmp	0x23a	; 0x23a <__bad_interrupt>
     178:	0c 94 1d 01 	jmp	0x23a	; 0x23a <__bad_interrupt>
     17c:	0c 94 1d 01 	jmp	0x23a	; 0x23a <__bad_interrupt>
     180:	0c 94 1d 01 	jmp	0x23a	; 0x23a <__bad_interrupt>
     184:	0c 94 1d 01 	jmp	0x23a	; 0x23a <__bad_interrupt>
     188:	0c 94 1d 01 	jmp	0x23a	; 0x23a <__bad_interrupt>
     18c:	0c 94 1d 01 	jmp	0x23a	; 0x23a <__bad_interrupt>
     190:	0c 94 1d 01 	jmp	0x23a	; 0x23a <__bad_interrupt>
     194:	0c 94 1d 01 	jmp	0x23a	; 0x23a <__bad_interrupt>
     198:	0c 94 1d 01 	jmp	0x23a	; 0x23a <__bad_interrupt>
     19c:	0c 94 1d 01 	jmp	0x23a	; 0x23a <__bad_interrupt>
     1a0:	0c 94 1d 01 	jmp	0x23a	; 0x23a <__bad_interrupt>
     1a4:	0c 94 1d 01 	jmp	0x23a	; 0x23a <__bad_interrupt>
     1a8:	0c 94 1d 01 	jmp	0x23a	; 0x23a <__bad_interrupt>
     1ac:	0c 94 1d 01 	jmp	0x23a	; 0x23a <__bad_interrupt>
     1b0:	0c 94 1d 01 	jmp	0x23a	; 0x23a <__bad_interrupt>
     1b4:	0c 94 1d 01 	jmp	0x23a	; 0x23a <__bad_interrupt>
     1b8:	0c 94 1d 01 	jmp	0x23a	; 0x23a <__bad_interrupt>
     1bc:	0c 94 1d 01 	jmp	0x23a	; 0x23a <__bad_interrupt>
     1c0:	0c 94 1d 01 	jmp	0x23a	; 0x23a <__bad_interrupt>
     1c4:	0c 94 1d 01 	jmp	0x23a	; 0x23a <__bad_interrupt>
     1c8:	0c 94 1d 01 	jmp	0x23a	; 0x23a <__bad_interrupt>
     1cc:	0c 94 1d 01 	jmp	0x23a	; 0x23a <__bad_interrupt>
     1d0:	0c 94 1d 01 	jmp	0x23a	; 0x23a <__bad_interrupt>
     1d4:	0c 94 1d 01 	jmp	0x23a	; 0x23a <__bad_interrupt>
     1d8:	0c 94 1d 01 	jmp	0x23a	; 0x23a <__bad_interrupt>
     1dc:	0c 94 1d 01 	jmp	0x23a	; 0x23a <__bad_interrupt>
     1e0:	0c 94 1d 01 	jmp	0x23a	; 0x23a <__bad_interrupt>
     1e4:	0c 94 1d 01 	jmp	0x23a	; 0x23a <__bad_interrupt>
     1e8:	0c 94 1d 01 	jmp	0x23a	; 0x23a <__bad_interrupt>
     1ec:	0c 94 1d 01 	jmp	0x23a	; 0x23a <__bad_interrupt>
     1f0:	0c 94 1d 01 	jmp	0x23a	; 0x23a <__bad_interrupt>
     1f4:	0c 94 1d 01 	jmp	0x23a	; 0x23a <__bad_interrupt>
     1f8:	0c 94 1d 01 	jmp	0x23a	; 0x23a <__bad_interrupt>

000001fc <__ctors_end>:
     1fc:	11 24       	eor	r1, r1
     1fe:	1f be       	out	0x3f, r1	; 63
     200:	cf ef       	ldi	r28, 0xFF	; 255
     202:	cd bf       	out	0x3d, r28	; 61
     204:	df e2       	ldi	r29, 0x2F	; 47
     206:	de bf       	out	0x3e, r29	; 62

00000208 <__do_copy_data>:
     208:	14 e2       	ldi	r17, 0x24	; 36
     20a:	a0 e0       	ldi	r26, 0x00	; 0
     20c:	b0 e2       	ldi	r27, 0x20	; 32
     20e:	e0 e5       	ldi	r30, 0x50	; 80
     210:	f6 e2       	ldi	r31, 0x26	; 38
     212:	00 e0       	ldi	r16, 0x00	; 0
     214:	0b bf       	out	0x3b, r16	; 59
     216:	02 c0       	rjmp	.+4      	; 0x21c <__do_copy_data+0x14>
     218:	07 90       	elpm	r0, Z+
     21a:	0d 92       	st	X+, r0
     21c:	a4 3a       	cpi	r26, 0xA4	; 164
     21e:	b1 07       	cpc	r27, r17
     220:	d9 f7       	brne	.-10     	; 0x218 <__do_copy_data+0x10>

00000222 <__do_clear_bss>:
     222:	16 e2       	ldi	r17, 0x26	; 38
     224:	a4 ea       	ldi	r26, 0xA4	; 164
     226:	b4 e2       	ldi	r27, 0x24	; 36
     228:	01 c0       	rjmp	.+2      	; 0x22c <.do_clear_bss_start>

0000022a <.do_clear_bss_loop>:
     22a:	1d 92       	st	X+, r1

0000022c <.do_clear_bss_start>:
     22c:	ad 3b       	cpi	r26, 0xBD	; 189
     22e:	b1 07       	cpc	r27, r17
     230:	e1 f7       	brne	.-8      	; 0x22a <.do_clear_bss_loop>
     232:	0e 94 1d 11 	call	0x223a	; 0x223a <main>
     236:	0c 94 04 13 	jmp	0x2608	; 0x2608 <_exit>

0000023a <__bad_interrupt>:
     23a:	0c 94 00 00 	jmp	0	; 0x0 <__vectors>

0000023e <spi_xmega_set_baud_div>:
     23e:	cf 92       	push	r12
     240:	df 92       	push	r13
     242:	ef 92       	push	r14
     244:	ff 92       	push	r15
     246:	0f 93       	push	r16
     248:	1f 93       	push	r17
     24a:	cf 93       	push	r28
     24c:	df 93       	push	r29
     24e:	ec 01       	movw	r28, r24
     250:	6a 01       	movw	r12, r20
     252:	7b 01       	movw	r14, r22
     254:	db 01       	movw	r26, r22
     256:	ca 01       	movw	r24, r20
     258:	01 97       	sbiw	r24, 0x01	; 1
     25a:	a1 09       	sbc	r26, r1
     25c:	b1 09       	sbc	r27, r1
     25e:	bc 01       	movw	r22, r24
     260:	cd 01       	movw	r24, r26
     262:	60 0f       	add	r22, r16
     264:	71 1f       	adc	r23, r17
     266:	82 1f       	adc	r24, r18
     268:	93 1f       	adc	r25, r19
     26a:	a7 01       	movw	r20, r14
     26c:	96 01       	movw	r18, r12
     26e:	0e 94 9e 11 	call	0x233c	; 0x233c <__udivmodsi4>
     272:	21 38       	cpi	r18, 0x81	; 129
     274:	31 05       	cpc	r19, r1
     276:	41 05       	cpc	r20, r1
     278:	51 05       	cpc	r21, r1
     27a:	28 f5       	brcc	.+74     	; 0x2c6 <spi_xmega_set_baud_div+0x88>
     27c:	21 34       	cpi	r18, 0x41	; 65
     27e:	31 05       	cpc	r19, r1
     280:	41 05       	cpc	r20, r1
     282:	51 05       	cpc	r21, r1
     284:	78 f4       	brcc	.+30     	; 0x2a4 <spi_xmega_set_baud_div+0x66>
     286:	21 32       	cpi	r18, 0x21	; 33
     288:	31 05       	cpc	r19, r1
     28a:	41 05       	cpc	r20, r1
     28c:	51 05       	cpc	r21, r1
     28e:	60 f4       	brcc	.+24     	; 0x2a8 <spi_xmega_set_baud_div+0x6a>
     290:	21 31       	cpi	r18, 0x11	; 17
     292:	60 f4       	brcc	.+24     	; 0x2ac <spi_xmega_set_baud_div+0x6e>
     294:	29 30       	cpi	r18, 0x09	; 9
     296:	60 f4       	brcc	.+24     	; 0x2b0 <spi_xmega_set_baud_div+0x72>
     298:	25 30       	cpi	r18, 0x05	; 5
     29a:	60 f4       	brcc	.+24     	; 0x2b4 <spi_xmega_set_baud_div+0x76>
     29c:	23 30       	cpi	r18, 0x03	; 3
     29e:	60 f4       	brcc	.+24     	; 0x2b8 <spi_xmega_set_baud_div+0x7a>
     2a0:	90 e8       	ldi	r25, 0x80	; 128
     2a2:	0b c0       	rjmp	.+22     	; 0x2ba <spi_xmega_set_baud_div+0x7c>
     2a4:	93 e0       	ldi	r25, 0x03	; 3
     2a6:	09 c0       	rjmp	.+18     	; 0x2ba <spi_xmega_set_baud_div+0x7c>
     2a8:	92 e0       	ldi	r25, 0x02	; 2
     2aa:	07 c0       	rjmp	.+14     	; 0x2ba <spi_xmega_set_baud_div+0x7c>
     2ac:	92 e8       	ldi	r25, 0x82	; 130
     2ae:	05 c0       	rjmp	.+10     	; 0x2ba <spi_xmega_set_baud_div+0x7c>
     2b0:	91 e0       	ldi	r25, 0x01	; 1
     2b2:	03 c0       	rjmp	.+6      	; 0x2ba <spi_xmega_set_baud_div+0x7c>
     2b4:	91 e8       	ldi	r25, 0x81	; 129
     2b6:	01 c0       	rjmp	.+2      	; 0x2ba <spi_xmega_set_baud_div+0x7c>
     2b8:	90 e0       	ldi	r25, 0x00	; 0
     2ba:	28 81       	ld	r18, Y
     2bc:	2c 77       	andi	r18, 0x7C	; 124
     2be:	92 2b       	or	r25, r18
     2c0:	98 83       	st	Y, r25
     2c2:	81 e0       	ldi	r24, 0x01	; 1
     2c4:	01 c0       	rjmp	.+2      	; 0x2c8 <spi_xmega_set_baud_div+0x8a>
     2c6:	8f ef       	ldi	r24, 0xFF	; 255
     2c8:	df 91       	pop	r29
     2ca:	cf 91       	pop	r28
     2cc:	1f 91       	pop	r17
     2ce:	0f 91       	pop	r16
     2d0:	ff 90       	pop	r15
     2d2:	ef 90       	pop	r14
     2d4:	df 90       	pop	r13
     2d6:	cf 90       	pop	r12
     2d8:	08 95       	ret

000002da <nvm_wait_until_ready>:
     2da:	80 91 cf 01 	lds	r24, 0x01CF
     2de:	87 fd       	sbrc	r24, 7
     2e0:	fc cf       	rjmp	.-8      	; 0x2da <nvm_wait_until_ready>
     2e2:	08 95       	ret

000002e4 <nvm_read_production_signature_row>:
     2e4:	68 2f       	mov	r22, r24
     2e6:	70 e0       	ldi	r23, 0x00	; 0
     2e8:	82 e0       	ldi	r24, 0x02	; 2
     2ea:	0c 94 d1 04 	jmp	0x9a2	; 0x9a2 <nvm_read_byte>

000002ee <nvm_issue_command>:
     2ee:	1f 93       	push	r17
     2f0:	cf 93       	push	r28
     2f2:	df 93       	push	r29
     2f4:	c0 ec       	ldi	r28, 0xC0	; 192
     2f6:	d1 e0       	ldi	r29, 0x01	; 1
     2f8:	1a 85       	ldd	r17, Y+10	; 0x0a
     2fa:	8a 87       	std	Y+10, r24	; 0x0a
     2fc:	61 e0       	ldi	r22, 0x01	; 1
     2fe:	8b ec       	ldi	r24, 0xCB	; 203
     300:	91 e0       	ldi	r25, 0x01	; 1
     302:	0e 94 db 04 	call	0x9b6	; 0x9b6 <ccp_write_io>
     306:	1a 87       	std	Y+10, r17	; 0x0a
     308:	df 91       	pop	r29
     30a:	cf 91       	pop	r28
     30c:	1f 91       	pop	r17
     30e:	08 95       	ret

00000310 <nvm_read_device_serial>:
     310:	cf 93       	push	r28
     312:	df 93       	push	r29
     314:	ec 01       	movw	r28, r24
     316:	88 e0       	ldi	r24, 0x08	; 8
     318:	0e 94 72 01 	call	0x2e4	; 0x2e4 <nvm_read_production_signature_row>
     31c:	88 83       	st	Y, r24
     31e:	89 e0       	ldi	r24, 0x09	; 9
     320:	0e 94 72 01 	call	0x2e4	; 0x2e4 <nvm_read_production_signature_row>
     324:	89 83       	std	Y+1, r24	; 0x01
     326:	8a e0       	ldi	r24, 0x0A	; 10
     328:	0e 94 72 01 	call	0x2e4	; 0x2e4 <nvm_read_production_signature_row>
     32c:	8a 83       	std	Y+2, r24	; 0x02
     32e:	8b e0       	ldi	r24, 0x0B	; 11
     330:	0e 94 72 01 	call	0x2e4	; 0x2e4 <nvm_read_production_signature_row>
     334:	8b 83       	std	Y+3, r24	; 0x03
     336:	8c e0       	ldi	r24, 0x0C	; 12
     338:	0e 94 72 01 	call	0x2e4	; 0x2e4 <nvm_read_production_signature_row>
     33c:	8c 83       	std	Y+4, r24	; 0x04
     33e:	8d e0       	ldi	r24, 0x0D	; 13
     340:	0e 94 72 01 	call	0x2e4	; 0x2e4 <nvm_read_production_signature_row>
     344:	8d 83       	std	Y+5, r24	; 0x05
     346:	80 e1       	ldi	r24, 0x10	; 16
     348:	0e 94 72 01 	call	0x2e4	; 0x2e4 <nvm_read_production_signature_row>
     34c:	8e 83       	std	Y+6, r24	; 0x06
     34e:	82 e1       	ldi	r24, 0x12	; 18
     350:	0e 94 72 01 	call	0x2e4	; 0x2e4 <nvm_read_production_signature_row>
     354:	8f 83       	std	Y+7, r24	; 0x07
     356:	83 e1       	ldi	r24, 0x13	; 19
     358:	0e 94 72 01 	call	0x2e4	; 0x2e4 <nvm_read_production_signature_row>
     35c:	88 87       	std	Y+8, r24	; 0x08
     35e:	84 e1       	ldi	r24, 0x14	; 20
     360:	0e 94 72 01 	call	0x2e4	; 0x2e4 <nvm_read_production_signature_row>
     364:	89 87       	std	Y+9, r24	; 0x09
     366:	85 e1       	ldi	r24, 0x15	; 21
     368:	0e 94 72 01 	call	0x2e4	; 0x2e4 <nvm_read_production_signature_row>
     36c:	8a 87       	std	Y+10, r24	; 0x0a
     36e:	df 91       	pop	r29
     370:	cf 91       	pop	r28
     372:	08 95       	ret

00000374 <nvm_eeprom_read_byte>:
     374:	cf 93       	push	r28
     376:	df 93       	push	r29
     378:	ec 01       	movw	r28, r24
     37a:	0e 94 6d 01 	call	0x2da	; 0x2da <nvm_wait_until_ready>
     37e:	ec ec       	ldi	r30, 0xCC	; 204
     380:	f1 e0       	ldi	r31, 0x01	; 1
     382:	80 81       	ld	r24, Z
     384:	88 60       	ori	r24, 0x08	; 8
     386:	80 83       	st	Z, r24
     388:	d0 5f       	subi	r29, 0xF0	; 240
     38a:	88 81       	ld	r24, Y
     38c:	90 81       	ld	r25, Z
     38e:	97 7f       	andi	r25, 0xF7	; 247
     390:	90 83       	st	Z, r25
     392:	df 91       	pop	r29
     394:	cf 91       	pop	r28
     396:	08 95       	ret

00000398 <nvm_eeprom_read_buffer>:
     398:	cf 92       	push	r12
     39a:	df 92       	push	r13
     39c:	ef 92       	push	r14
     39e:	ff 92       	push	r15
     3a0:	0f 93       	push	r16
     3a2:	1f 93       	push	r17
     3a4:	cf 93       	push	r28
     3a6:	df 93       	push	r29
     3a8:	00 d0       	rcall	.+0      	; 0x3aa <nvm_eeprom_read_buffer+0x12>
     3aa:	cd b7       	in	r28, 0x3d	; 61
     3ac:	de b7       	in	r29, 0x3e	; 62
     3ae:	8c 01       	movw	r16, r24
     3b0:	7b 01       	movw	r14, r22
     3b2:	49 83       	std	Y+1, r20	; 0x01
     3b4:	5a 83       	std	Y+2, r21	; 0x02
     3b6:	0e 94 6d 01 	call	0x2da	; 0x2da <nvm_wait_until_ready>
     3ba:	8c ec       	ldi	r24, 0xCC	; 204
     3bc:	c8 2e       	mov	r12, r24
     3be:	dd 24       	eor	r13, r13
     3c0:	d3 94       	inc	r13
     3c2:	f6 01       	movw	r30, r12
     3c4:	90 81       	ld	r25, Z
     3c6:	98 60       	ori	r25, 0x08	; 8
     3c8:	90 83       	st	Z, r25
     3ca:	b8 01       	movw	r22, r16
     3cc:	70 5f       	subi	r23, 0xF0	; 240
     3ce:	49 81       	ldd	r20, Y+1	; 0x01
     3d0:	5a 81       	ldd	r21, Y+2	; 0x02
     3d2:	c7 01       	movw	r24, r14
     3d4:	0e 94 bf 12 	call	0x257e	; 0x257e <memcpy>
     3d8:	f6 01       	movw	r30, r12
     3da:	80 81       	ld	r24, Z
     3dc:	87 7f       	andi	r24, 0xF7	; 247
     3de:	80 83       	st	Z, r24
     3e0:	0f 90       	pop	r0
     3e2:	0f 90       	pop	r0
     3e4:	df 91       	pop	r29
     3e6:	cf 91       	pop	r28
     3e8:	1f 91       	pop	r17
     3ea:	0f 91       	pop	r16
     3ec:	ff 90       	pop	r15
     3ee:	ef 90       	pop	r14
     3f0:	df 90       	pop	r13
     3f2:	cf 90       	pop	r12
     3f4:	08 95       	ret

000003f6 <nvm_eeprom_flush_buffer>:
     3f6:	0e 94 6d 01 	call	0x2da	; 0x2da <nvm_wait_until_ready>
     3fa:	80 91 cf 01 	lds	r24, 0x01CF
     3fe:	81 ff       	sbrs	r24, 1
     400:	08 c0       	rjmp	.+16     	; 0x412 <nvm_eeprom_flush_buffer+0x1c>
     402:	86 e3       	ldi	r24, 0x36	; 54
     404:	80 93 ca 01 	sts	0x01CA, r24
     408:	61 e0       	ldi	r22, 0x01	; 1
     40a:	8b ec       	ldi	r24, 0xCB	; 203
     40c:	91 e0       	ldi	r25, 0x01	; 1
     40e:	0c 94 db 04 	jmp	0x9b6	; 0x9b6 <ccp_write_io>
     412:	08 95       	ret

00000414 <nvm_eeprom_load_byte_to_buffer>:
     414:	cf 93       	push	r28
     416:	df 93       	push	r29
     418:	00 d0       	rcall	.+0      	; 0x41a <nvm_eeprom_load_byte_to_buffer+0x6>
     41a:	cd b7       	in	r28, 0x3d	; 61
     41c:	de b7       	in	r29, 0x3e	; 62
     41e:	6a 83       	std	Y+2, r22	; 0x02
     420:	89 83       	std	Y+1, r24	; 0x01
     422:	0e 94 6d 01 	call	0x2da	; 0x2da <nvm_wait_until_ready>
     426:	ac ec       	ldi	r26, 0xCC	; 204
     428:	b1 e0       	ldi	r27, 0x01	; 1
     42a:	9c 91       	ld	r25, X
     42c:	98 60       	ori	r25, 0x08	; 8
     42e:	9c 93       	st	X, r25
     430:	89 81       	ldd	r24, Y+1	; 0x01
     432:	e8 2f       	mov	r30, r24
     434:	f0 e0       	ldi	r31, 0x00	; 0
     436:	f0 5f       	subi	r31, 0xF0	; 240
     438:	6a 81       	ldd	r22, Y+2	; 0x02
     43a:	60 83       	st	Z, r22
     43c:	8c 91       	ld	r24, X
     43e:	87 7f       	andi	r24, 0xF7	; 247
     440:	8c 93       	st	X, r24
     442:	0f 90       	pop	r0
     444:	0f 90       	pop	r0
     446:	df 91       	pop	r29
     448:	cf 91       	pop	r28
     44a:	08 95       	ret

0000044c <nvm_eeprom_write_byte>:
     44c:	ef 92       	push	r14
     44e:	ff 92       	push	r15
     450:	0f 93       	push	r16
     452:	1f 93       	push	r17
     454:	cf 93       	push	r28
     456:	df 93       	push	r29
     458:	00 d0       	rcall	.+0      	; 0x45a <nvm_eeprom_write_byte+0xe>
     45a:	cd b7       	in	r28, 0x3d	; 61
     45c:	de b7       	in	r29, 0x3e	; 62
     45e:	18 2f       	mov	r17, r24
     460:	80 ec       	ldi	r24, 0xC0	; 192
     462:	e8 2e       	mov	r14, r24
     464:	ff 24       	eor	r15, r15
     466:	f3 94       	inc	r15
     468:	f7 01       	movw	r30, r14
     46a:	02 85       	ldd	r16, Z+10	; 0x0a
     46c:	69 83       	std	Y+1, r22	; 0x01
     46e:	9a 83       	std	Y+2, r25	; 0x02
     470:	0e 94 fb 01 	call	0x3f6	; 0x3f6 <nvm_eeprom_flush_buffer>
     474:	0e 94 6d 01 	call	0x2da	; 0x2da <nvm_wait_until_ready>
     478:	69 81       	ldd	r22, Y+1	; 0x01
     47a:	81 2f       	mov	r24, r17
     47c:	0e 94 0a 02 	call	0x414	; 0x414 <nvm_eeprom_load_byte_to_buffer>
     480:	f7 01       	movw	r30, r14
     482:	12 82       	std	Z+2, r1	; 0x02
     484:	9a 81       	ldd	r25, Y+2	; 0x02
     486:	91 83       	std	Z+1, r25	; 0x01
     488:	10 83       	st	Z, r17
     48a:	85 e3       	ldi	r24, 0x35	; 53
     48c:	82 87       	std	Z+10, r24	; 0x0a
     48e:	61 e0       	ldi	r22, 0x01	; 1
     490:	8b ec       	ldi	r24, 0xCB	; 203
     492:	91 e0       	ldi	r25, 0x01	; 1
     494:	0e 94 db 04 	call	0x9b6	; 0x9b6 <ccp_write_io>
     498:	f7 01       	movw	r30, r14
     49a:	02 87       	std	Z+10, r16	; 0x0a
     49c:	0f 90       	pop	r0
     49e:	0f 90       	pop	r0
     4a0:	df 91       	pop	r29
     4a2:	cf 91       	pop	r28
     4a4:	1f 91       	pop	r17
     4a6:	0f 91       	pop	r16
     4a8:	ff 90       	pop	r15
     4aa:	ef 90       	pop	r14
     4ac:	08 95       	ret

000004ae <nvm_eeprom_load_page_to_buffer>:
     4ae:	0f 93       	push	r16
     4b0:	1f 93       	push	r17
     4b2:	cf 93       	push	r28
     4b4:	8c 01       	movw	r16, r24
     4b6:	0e 94 6d 01 	call	0x2da	; 0x2da <nvm_wait_until_ready>
     4ba:	c0 e0       	ldi	r28, 0x00	; 0
     4bc:	f8 01       	movw	r30, r16
     4be:	61 91       	ld	r22, Z+
     4c0:	8f 01       	movw	r16, r30
     4c2:	8c 2f       	mov	r24, r28
     4c4:	0e 94 0a 02 	call	0x414	; 0x414 <nvm_eeprom_load_byte_to_buffer>
     4c8:	cf 5f       	subi	r28, 0xFF	; 255
     4ca:	c0 32       	cpi	r28, 0x20	; 32
     4cc:	b9 f7       	brne	.-18     	; 0x4bc <nvm_eeprom_load_page_to_buffer+0xe>
     4ce:	cf 91       	pop	r28
     4d0:	1f 91       	pop	r17
     4d2:	0f 91       	pop	r16
     4d4:	08 95       	ret

000004d6 <nvm_eeprom_atomic_write_page>:
     4d6:	cf 93       	push	r28
     4d8:	df 93       	push	r29
     4da:	1f 92       	push	r1
     4dc:	cd b7       	in	r28, 0x3d	; 61
     4de:	de b7       	in	r29, 0x3e	; 62
     4e0:	89 83       	std	Y+1, r24	; 0x01
     4e2:	0e 94 6d 01 	call	0x2da	; 0x2da <nvm_wait_until_ready>
     4e6:	89 81       	ldd	r24, Y+1	; 0x01
     4e8:	20 e2       	ldi	r18, 0x20	; 32
     4ea:	82 9f       	mul	r24, r18
     4ec:	c0 01       	movw	r24, r0
     4ee:	11 24       	eor	r1, r1
     4f0:	e0 ec       	ldi	r30, 0xC0	; 192
     4f2:	f1 e0       	ldi	r31, 0x01	; 1
     4f4:	12 82       	std	Z+2, r1	; 0x02
     4f6:	91 83       	std	Z+1, r25	; 0x01
     4f8:	80 83       	st	Z, r24
     4fa:	85 e3       	ldi	r24, 0x35	; 53
     4fc:	0f 90       	pop	r0
     4fe:	df 91       	pop	r29
     500:	cf 91       	pop	r28
     502:	0c 94 77 01 	jmp	0x2ee	; 0x2ee <nvm_issue_command>

00000506 <nvm_eeprom_erase_and_write_buffer>:
     506:	cf 92       	push	r12
     508:	df 92       	push	r13
     50a:	ef 92       	push	r14
     50c:	ff 92       	push	r15
     50e:	0f 93       	push	r16
     510:	1f 93       	push	r17
     512:	cf 93       	push	r28
     514:	df 93       	push	r29
     516:	ec 01       	movw	r28, r24
     518:	7b 01       	movw	r14, r22
     51a:	8a 01       	movw	r16, r20
     51c:	01 15       	cp	r16, r1
     51e:	11 05       	cpc	r17, r1
     520:	41 f1       	breq	.+80     	; 0x572 <nvm_eeprom_erase_and_write_buffer+0x6c>
     522:	ce 01       	movw	r24, r28
     524:	8f 71       	andi	r24, 0x1F	; 31
     526:	99 27       	eor	r25, r25
     528:	89 2b       	or	r24, r25
     52a:	a9 f4       	brne	.+42     	; 0x556 <nvm_eeprom_erase_and_write_buffer+0x50>
     52c:	00 32       	cpi	r16, 0x20	; 32
     52e:	11 05       	cpc	r17, r1
     530:	90 f0       	brcs	.+36     	; 0x556 <nvm_eeprom_erase_and_write_buffer+0x50>
     532:	c7 01       	movw	r24, r14
     534:	0e 94 57 02 	call	0x4ae	; 0x4ae <nvm_eeprom_load_page_to_buffer>
     538:	ce 01       	movw	r24, r28
     53a:	25 e0       	ldi	r18, 0x05	; 5
     53c:	96 95       	lsr	r25
     53e:	87 95       	ror	r24
     540:	2a 95       	dec	r18
     542:	e1 f7       	brne	.-8      	; 0x53c <nvm_eeprom_erase_and_write_buffer+0x36>
     544:	0e 94 6b 02 	call	0x4d6	; 0x4d6 <nvm_eeprom_atomic_write_page>
     548:	a0 96       	adiw	r28, 0x20	; 32
     54a:	80 e2       	ldi	r24, 0x20	; 32
     54c:	e8 0e       	add	r14, r24
     54e:	f1 1c       	adc	r15, r1
     550:	00 52       	subi	r16, 0x20	; 32
     552:	11 09       	sbc	r17, r1
     554:	e3 cf       	rjmp	.-58     	; 0x51c <nvm_eeprom_erase_and_write_buffer+0x16>
     556:	6e 01       	movw	r12, r28
     558:	ef ef       	ldi	r30, 0xFF	; 255
     55a:	ce 1a       	sub	r12, r30
     55c:	de 0a       	sbc	r13, r30
     55e:	f7 01       	movw	r30, r14
     560:	61 91       	ld	r22, Z+
     562:	7f 01       	movw	r14, r30
     564:	ce 01       	movw	r24, r28
     566:	0e 94 26 02 	call	0x44c	; 0x44c <nvm_eeprom_write_byte>
     56a:	01 50       	subi	r16, 0x01	; 1
     56c:	11 09       	sbc	r17, r1
     56e:	e6 01       	movw	r28, r12
     570:	d5 cf       	rjmp	.-86     	; 0x51c <nvm_eeprom_erase_and_write_buffer+0x16>
     572:	df 91       	pop	r29
     574:	cf 91       	pop	r28
     576:	1f 91       	pop	r17
     578:	0f 91       	pop	r16
     57a:	ff 90       	pop	r15
     57c:	ef 90       	pop	r14
     57e:	df 90       	pop	r13
     580:	cf 90       	pop	r12
     582:	08 95       	ret

00000584 <nvm_eeprom_split_write_page>:
     584:	cf 93       	push	r28
     586:	df 93       	push	r29
     588:	1f 92       	push	r1
     58a:	cd b7       	in	r28, 0x3d	; 61
     58c:	de b7       	in	r29, 0x3e	; 62
     58e:	89 83       	std	Y+1, r24	; 0x01
     590:	0e 94 6d 01 	call	0x2da	; 0x2da <nvm_wait_until_ready>
     594:	89 81       	ldd	r24, Y+1	; 0x01
     596:	20 e2       	ldi	r18, 0x20	; 32
     598:	82 9f       	mul	r24, r18
     59a:	c0 01       	movw	r24, r0
     59c:	11 24       	eor	r1, r1
     59e:	e0 ec       	ldi	r30, 0xC0	; 192
     5a0:	f1 e0       	ldi	r31, 0x01	; 1
     5a2:	12 82       	std	Z+2, r1	; 0x02
     5a4:	91 83       	std	Z+1, r25	; 0x01
     5a6:	80 83       	st	Z, r24
     5a8:	84 e3       	ldi	r24, 0x34	; 52
     5aa:	0f 90       	pop	r0
     5ac:	df 91       	pop	r29
     5ae:	cf 91       	pop	r28
     5b0:	0c 94 77 01 	jmp	0x2ee	; 0x2ee <nvm_issue_command>

000005b4 <nvm_eeprom_fill_buffer_with_value>:
     5b4:	cf 93       	push	r28
     5b6:	df 93       	push	r29
     5b8:	d8 2f       	mov	r29, r24
     5ba:	0e 94 fb 01 	call	0x3f6	; 0x3f6 <nvm_eeprom_flush_buffer>
     5be:	0e 94 6d 01 	call	0x2da	; 0x2da <nvm_wait_until_ready>
     5c2:	c0 e0       	ldi	r28, 0x00	; 0
     5c4:	6d 2f       	mov	r22, r29
     5c6:	8c 2f       	mov	r24, r28
     5c8:	0e 94 0a 02 	call	0x414	; 0x414 <nvm_eeprom_load_byte_to_buffer>
     5cc:	cf 5f       	subi	r28, 0xFF	; 255
     5ce:	c0 32       	cpi	r28, 0x20	; 32
     5d0:	c9 f7       	brne	.-14     	; 0x5c4 <nvm_eeprom_fill_buffer_with_value+0x10>
     5d2:	df 91       	pop	r29
     5d4:	cf 91       	pop	r28
     5d6:	08 95       	ret

000005d8 <nvm_eeprom_erase_bytes_in_page>:
     5d8:	cf 93       	push	r28
     5da:	df 93       	push	r29
     5dc:	1f 92       	push	r1
     5de:	cd b7       	in	r28, 0x3d	; 61
     5e0:	de b7       	in	r29, 0x3e	; 62
     5e2:	89 83       	std	Y+1, r24	; 0x01
     5e4:	0e 94 6d 01 	call	0x2da	; 0x2da <nvm_wait_until_ready>
     5e8:	89 81       	ldd	r24, Y+1	; 0x01
     5ea:	20 e2       	ldi	r18, 0x20	; 32
     5ec:	82 9f       	mul	r24, r18
     5ee:	c0 01       	movw	r24, r0
     5f0:	11 24       	eor	r1, r1
     5f2:	e0 ec       	ldi	r30, 0xC0	; 192
     5f4:	f1 e0       	ldi	r31, 0x01	; 1
     5f6:	12 82       	std	Z+2, r1	; 0x02
     5f8:	91 83       	std	Z+1, r25	; 0x01
     5fa:	80 83       	st	Z, r24
     5fc:	82 e3       	ldi	r24, 0x32	; 50
     5fe:	0f 90       	pop	r0
     600:	df 91       	pop	r29
     602:	cf 91       	pop	r28
     604:	0c 94 77 01 	jmp	0x2ee	; 0x2ee <nvm_issue_command>

00000608 <nvm_eeprom_erase_page>:
     608:	cf 93       	push	r28
     60a:	c8 2f       	mov	r28, r24
     60c:	8f ef       	ldi	r24, 0xFF	; 255
     60e:	0e 94 da 02 	call	0x5b4	; 0x5b4 <nvm_eeprom_fill_buffer_with_value>
     612:	8c 2f       	mov	r24, r28
     614:	cf 91       	pop	r28
     616:	0c 94 ec 02 	jmp	0x5d8	; 0x5d8 <nvm_eeprom_erase_bytes_in_page>

0000061a <nvm_eeprom_erase_bytes_in_all_pages>:
     61a:	0e 94 6d 01 	call	0x2da	; 0x2da <nvm_wait_until_ready>
     61e:	80 e3       	ldi	r24, 0x30	; 48
     620:	0c 94 77 01 	jmp	0x2ee	; 0x2ee <nvm_issue_command>

00000624 <nvm_eeprom_erase_all>:
     624:	8f ef       	ldi	r24, 0xFF	; 255
     626:	0e 94 da 02 	call	0x5b4	; 0x5b4 <nvm_eeprom_fill_buffer_with_value>
     62a:	0c 94 0d 03 	jmp	0x61a	; 0x61a <nvm_eeprom_erase_bytes_in_all_pages>

0000062e <nvm_issue_flash_range_crc>:
     62e:	cf 92       	push	r12
     630:	df 92       	push	r13
     632:	ef 92       	push	r14
     634:	ff 92       	push	r15
     636:	1f 93       	push	r17
     638:	cf 93       	push	r28
     63a:	df 93       	push	r29
     63c:	c0 ec       	ldi	r28, 0xC0	; 192
     63e:	d1 e0       	ldi	r29, 0x01	; 1
     640:	1a 85       	ldd	r17, Y+10	; 0x0a
     642:	ea e3       	ldi	r30, 0x3A	; 58
     644:	ea 87       	std	Y+10, r30	; 0x0a
     646:	68 83       	st	Y, r22
     648:	c7 2e       	mov	r12, r23
     64a:	d8 2e       	mov	r13, r24
     64c:	e9 2e       	mov	r14, r25
     64e:	ff 24       	eor	r15, r15
     650:	c9 82       	std	Y+1, r12	; 0x01
     652:	aa 27       	eor	r26, r26
     654:	bb 27       	eor	r27, r27
     656:	8a 83       	std	Y+2, r24	; 0x02
     658:	2c 83       	std	Y+4, r18	; 0x04
     65a:	bb 27       	eor	r27, r27
     65c:	a5 2f       	mov	r26, r21
     65e:	94 2f       	mov	r25, r20
     660:	83 2f       	mov	r24, r19
     662:	8d 83       	std	Y+5, r24	; 0x05
     664:	ca 01       	movw	r24, r20
     666:	aa 27       	eor	r26, r26
     668:	bb 27       	eor	r27, r27
     66a:	8e 83       	std	Y+6, r24	; 0x06
     66c:	61 e0       	ldi	r22, 0x01	; 1
     66e:	8b ec       	ldi	r24, 0xCB	; 203
     670:	91 e0       	ldi	r25, 0x01	; 1
     672:	0e 94 db 04 	call	0x9b6	; 0x9b6 <ccp_write_io>
     676:	1a 87       	std	Y+10, r17	; 0x0a
     678:	df 91       	pop	r29
     67a:	cf 91       	pop	r28
     67c:	1f 91       	pop	r17
     67e:	ff 90       	pop	r15
     680:	ef 90       	pop	r14
     682:	df 90       	pop	r13
     684:	cf 90       	pop	r12
     686:	08 95       	ret

00000688 <nvm_flash_read_buffer>:
     688:	ef 92       	push	r14
     68a:	ff 92       	push	r15
     68c:	0f 93       	push	r16
     68e:	1f 93       	push	r17
     690:	cf 93       	push	r28
     692:	df 93       	push	r29
     694:	ea 01       	movw	r28, r20
     696:	89 01       	movw	r16, r18
     698:	7b 01       	movw	r14, r22
     69a:	0e 94 6d 01 	call	0x2da	; 0x2da <nvm_wait_until_ready>
     69e:	ce 01       	movw	r24, r28
     6a0:	80 0f       	add	r24, r16
     6a2:	91 1f       	adc	r25, r17
     6a4:	de 01       	movw	r26, r28
     6a6:	b7 01       	movw	r22, r14
     6a8:	6c 1b       	sub	r22, r28
     6aa:	7d 0b       	sbc	r23, r29
     6ac:	8d 01       	movw	r16, r26
     6ae:	06 0f       	add	r16, r22
     6b0:	17 1f       	adc	r17, r23
     6b2:	a8 17       	cp	r26, r24
     6b4:	b9 07       	cpc	r27, r25
     6b6:	39 f0       	breq	.+14     	; 0x6c6 <nvm_flash_read_buffer+0x3e>
     6b8:	20 e0       	ldi	r18, 0x00	; 0
     6ba:	30 e0       	ldi	r19, 0x00	; 0
     6bc:	2b bf       	out	0x3b, r18	; 59
     6be:	f8 01       	movw	r30, r16
     6c0:	07 91       	elpm	r16, Z+
     6c2:	0d 93       	st	X+, r16
     6c4:	f3 cf       	rjmp	.-26     	; 0x6ac <nvm_flash_read_buffer+0x24>
     6c6:	df 91       	pop	r29
     6c8:	cf 91       	pop	r28
     6ca:	1f 91       	pop	r17
     6cc:	0f 91       	pop	r16
     6ce:	ff 90       	pop	r15
     6d0:	ef 90       	pop	r14
     6d2:	08 95       	ret

000006d4 <nvm_user_sig_read_buffer>:
     6d4:	ef 92       	push	r14
     6d6:	ff 92       	push	r15
     6d8:	0f 93       	push	r16
     6da:	1f 93       	push	r17
     6dc:	cf 93       	push	r28
     6de:	df 93       	push	r29
     6e0:	77 27       	eor	r23, r23
     6e2:	7a 01       	movw	r14, r20
     6e4:	e2 0e       	add	r14, r18
     6e6:	f3 1e       	adc	r15, r19
     6e8:	ea 01       	movw	r28, r20
     6ea:	8b 01       	movw	r16, r22
     6ec:	04 1b       	sub	r16, r20
     6ee:	15 0b       	sbc	r17, r21
     6f0:	be 01       	movw	r22, r28
     6f2:	60 0f       	add	r22, r16
     6f4:	71 1f       	adc	r23, r17
     6f6:	ce 15       	cp	r28, r14
     6f8:	df 05       	cpc	r29, r15
     6fa:	29 f0       	breq	.+10     	; 0x706 <nvm_user_sig_read_buffer+0x32>
     6fc:	81 e0       	ldi	r24, 0x01	; 1
     6fe:	0e 94 d1 04 	call	0x9a2	; 0x9a2 <nvm_read_byte>
     702:	89 93       	st	Y+, r24
     704:	f5 cf       	rjmp	.-22     	; 0x6f0 <nvm_user_sig_read_buffer+0x1c>
     706:	df 91       	pop	r29
     708:	cf 91       	pop	r28
     70a:	1f 91       	pop	r17
     70c:	0f 91       	pop	r16
     70e:	ff 90       	pop	r15
     710:	ef 90       	pop	r14
     712:	08 95       	ret

00000714 <nvm_user_sig_write_buffer>:
     714:	2f 92       	push	r2
     716:	3f 92       	push	r3
     718:	4f 92       	push	r4
     71a:	5f 92       	push	r5
     71c:	6f 92       	push	r6
     71e:	7f 92       	push	r7
     720:	8f 92       	push	r8
     722:	9f 92       	push	r9
     724:	af 92       	push	r10
     726:	bf 92       	push	r11
     728:	cf 92       	push	r12
     72a:	df 92       	push	r13
     72c:	ef 92       	push	r14
     72e:	ff 92       	push	r15
     730:	0f 93       	push	r16
     732:	1f 93       	push	r17
     734:	cf 93       	push	r28
     736:	df 93       	push	r29
     738:	00 d0       	rcall	.+0      	; 0x73a <nvm_user_sig_write_buffer+0x26>
     73a:	cd b7       	in	r28, 0x3d	; 61
     73c:	de b7       	in	r29, 0x3e	; 62
     73e:	5a 01       	movw	r10, r20
     740:	69 01       	movw	r12, r18
     742:	7b 01       	movw	r14, r22
     744:	10 e0       	ldi	r17, 0x00	; 0
     746:	22 24       	eor	r2, r2
     748:	2a 94       	dec	r2
     74a:	32 2c       	mov	r3, r2
     74c:	c1 14       	cp	r12, r1
     74e:	d1 04       	cpc	r13, r1
     750:	09 f4       	brne	.+2      	; 0x754 <nvm_user_sig_write_buffer+0x40>
     752:	50 c0       	rjmp	.+160    	; 0x7f4 <nvm_user_sig_write_buffer+0xe0>
     754:	41 2c       	mov	r4, r1
     756:	51 2c       	mov	r5, r1
     758:	32 01       	movw	r6, r4
     75a:	42 01       	movw	r8, r4
     75c:	00 23       	and	r16, r16
     75e:	91 f0       	breq	.+36     	; 0x784 <nvm_user_sig_write_buffer+0x70>
     760:	b2 01       	movw	r22, r4
     762:	81 e0       	ldi	r24, 0x01	; 1
     764:	0e 94 d1 04 	call	0x9a2	; 0x9a2 <nvm_read_byte>
     768:	89 83       	std	Y+1, r24	; 0x01
     76a:	b2 01       	movw	r22, r4
     76c:	6f 5f       	subi	r22, 0xFF	; 255
     76e:	7f 4f       	sbci	r23, 0xFF	; 255
     770:	81 e0       	ldi	r24, 0x01	; 1
     772:	0e 94 d1 04 	call	0x9a2	; 0x9a2 <nvm_read_byte>
     776:	8a 83       	std	Y+2, r24	; 0x02
     778:	89 81       	ldd	r24, Y+1	; 0x01
     77a:	9a 81       	ldd	r25, Y+2	; 0x02
     77c:	01 96       	adiw	r24, 0x01	; 1
     77e:	21 f0       	breq	.+8      	; 0x788 <nvm_user_sig_write_buffer+0x74>
     780:	11 e0       	ldi	r17, 0x01	; 1
     782:	02 c0       	rjmp	.+4      	; 0x788 <nvm_user_sig_write_buffer+0x74>
     784:	29 82       	std	Y+1, r2	; 0x01
     786:	3a 82       	std	Y+2, r3	; 0x02
     788:	c1 14       	cp	r12, r1
     78a:	d1 04       	cpc	r13, r1
     78c:	01 f1       	breq	.+64     	; 0x7ce <nvm_user_sig_write_buffer+0xba>
     78e:	e8 14       	cp	r14, r8
     790:	f9 04       	cpc	r15, r9
     792:	69 f4       	brne	.+26     	; 0x7ae <nvm_user_sig_write_buffer+0x9a>
     794:	81 e0       	ldi	r24, 0x01	; 1
     796:	c8 1a       	sub	r12, r24
     798:	d1 08       	sbc	r13, r1
     79a:	ef ef       	ldi	r30, 0xFF	; 255
     79c:	ee 1a       	sub	r14, r30
     79e:	fe 0a       	sbc	r15, r30
     7a0:	f5 01       	movw	r30, r10
     7a2:	81 91       	ld	r24, Z+
     7a4:	5f 01       	movw	r10, r30
     7a6:	89 83       	std	Y+1, r24	; 0x01
     7a8:	c1 14       	cp	r12, r1
     7aa:	d1 04       	cpc	r13, r1
     7ac:	81 f0       	breq	.+32     	; 0x7ce <nvm_user_sig_write_buffer+0xba>
     7ae:	ff ef       	ldi	r31, 0xFF	; 255
     7b0:	8f 1a       	sub	r8, r31
     7b2:	9f 0a       	sbc	r9, r31
     7b4:	e8 14       	cp	r14, r8
     7b6:	f9 04       	cpc	r15, r9
     7b8:	51 f4       	brne	.+20     	; 0x7ce <nvm_user_sig_write_buffer+0xba>
     7ba:	21 e0       	ldi	r18, 0x01	; 1
     7bc:	c2 1a       	sub	r12, r18
     7be:	d1 08       	sbc	r13, r1
     7c0:	8f ef       	ldi	r24, 0xFF	; 255
     7c2:	e8 1a       	sub	r14, r24
     7c4:	f8 0a       	sbc	r15, r24
     7c6:	f5 01       	movw	r30, r10
     7c8:	81 91       	ld	r24, Z+
     7ca:	5f 01       	movw	r10, r30
     7cc:	8a 83       	std	Y+2, r24	; 0x02
     7ce:	49 81       	ldd	r20, Y+1	; 0x01
     7d0:	5a 81       	ldd	r21, Y+2	; 0x02
     7d2:	c3 01       	movw	r24, r6
     7d4:	b2 01       	movw	r22, r4
     7d6:	0e 94 15 13 	call	0x262a	; 0x262a <nvm_flash_load_word_to_buffer>
     7da:	f2 e0       	ldi	r31, 0x02	; 2
     7dc:	4f 0e       	add	r4, r31
     7de:	51 1c       	adc	r5, r1
     7e0:	61 1c       	adc	r6, r1
     7e2:	71 1c       	adc	r7, r1
     7e4:	41 14       	cp	r4, r1
     7e6:	21 e0       	ldi	r18, 0x01	; 1
     7e8:	52 06       	cpc	r5, r18
     7ea:	61 04       	cpc	r6, r1
     7ec:	71 04       	cpc	r7, r1
     7ee:	09 f0       	breq	.+2      	; 0x7f2 <nvm_user_sig_write_buffer+0xde>
     7f0:	b4 cf       	rjmp	.-152    	; 0x75a <nvm_user_sig_write_buffer+0x46>
     7f2:	ac cf       	rjmp	.-168    	; 0x74c <nvm_user_sig_write_buffer+0x38>
     7f4:	11 23       	and	r17, r17
     7f6:	41 f0       	breq	.+16     	; 0x808 <nvm_user_sig_write_buffer+0xf4>
     7f8:	0e 94 6d 01 	call	0x2da	; 0x2da <nvm_wait_until_ready>
     7fc:	48 e1       	ldi	r20, 0x18	; 24
     7fe:	60 e0       	ldi	r22, 0x00	; 0
     800:	70 e0       	ldi	r23, 0x00	; 0
     802:	cb 01       	movw	r24, r22
     804:	0e 94 06 13 	call	0x260c	; 0x260c <_etext>
     808:	0e 94 6d 01 	call	0x2da	; 0x2da <nvm_wait_until_ready>
     80c:	4a e1       	ldi	r20, 0x1A	; 26
     80e:	60 e0       	ldi	r22, 0x00	; 0
     810:	70 e0       	ldi	r23, 0x00	; 0
     812:	cb 01       	movw	r24, r22
     814:	0f 90       	pop	r0
     816:	0f 90       	pop	r0
     818:	df 91       	pop	r29
     81a:	cf 91       	pop	r28
     81c:	1f 91       	pop	r17
     81e:	0f 91       	pop	r16
     820:	ff 90       	pop	r15
     822:	ef 90       	pop	r14
     824:	df 90       	pop	r13
     826:	cf 90       	pop	r12
     828:	bf 90       	pop	r11
     82a:	af 90       	pop	r10
     82c:	9f 90       	pop	r9
     82e:	8f 90       	pop	r8
     830:	7f 90       	pop	r7
     832:	6f 90       	pop	r6
     834:	5f 90       	pop	r5
     836:	4f 90       	pop	r4
     838:	3f 90       	pop	r3
     83a:	2f 90       	pop	r2
     83c:	0c 94 06 13 	jmp	0x260c	; 0x260c <_etext>

00000840 <nvm_flash_erase_and_write_buffer>:
     840:	2f 92       	push	r2
     842:	3f 92       	push	r3
     844:	4f 92       	push	r4
     846:	5f 92       	push	r5
     848:	6f 92       	push	r6
     84a:	7f 92       	push	r7
     84c:	8f 92       	push	r8
     84e:	9f 92       	push	r9
     850:	af 92       	push	r10
     852:	bf 92       	push	r11
     854:	cf 92       	push	r12
     856:	df 92       	push	r13
     858:	ef 92       	push	r14
     85a:	ff 92       	push	r15
     85c:	0f 93       	push	r16
     85e:	1f 93       	push	r17
     860:	cf 93       	push	r28
     862:	df 93       	push	r29
     864:	cd b7       	in	r28, 0x3d	; 61
     866:	de b7       	in	r29, 0x3e	; 62
     868:	26 97       	sbiw	r28, 0x06	; 6
     86a:	cd bf       	out	0x3d, r28	; 61
     86c:	de bf       	out	0x3e, r29	; 62
     86e:	3a 01       	movw	r6, r20
     870:	69 01       	movw	r12, r18
     872:	4b 01       	movw	r8, r22
     874:	7b 01       	movw	r14, r22
     876:	ee 24       	eor	r14, r14
     878:	22 24       	eor	r2, r2
     87a:	2a 94       	dec	r2
     87c:	32 2c       	mov	r3, r2
     87e:	c1 14       	cp	r12, r1
     880:	d1 04       	cpc	r13, r1
     882:	09 f4       	brne	.+2      	; 0x886 <nvm_flash_erase_and_write_buffer+0x46>
     884:	5e c0       	rjmp	.+188    	; 0x942 <nvm_flash_erase_and_write_buffer+0x102>
     886:	0e 94 6d 01 	call	0x2da	; 0x2da <nvm_wait_until_ready>
     88a:	27 01       	movw	r4, r14
     88c:	53 94       	inc	r5
     88e:	57 01       	movw	r10, r14
     890:	10 e0       	ldi	r17, 0x00	; 0
     892:	b5 01       	movw	r22, r10
     894:	80 e0       	ldi	r24, 0x00	; 0
     896:	90 e0       	ldi	r25, 0x00	; 0
     898:	00 23       	and	r16, r16
     89a:	59 f0       	breq	.+22     	; 0x8b2 <nvm_flash_erase_and_write_buffer+0x72>
     89c:	8b bf       	out	0x3b, r24	; 59
     89e:	fb 01       	movw	r30, r22
     8a0:	27 91       	elpm	r18, Z+
     8a2:	36 91       	elpm	r19, Z
     8a4:	29 83       	std	Y+1, r18	; 0x01
     8a6:	3a 83       	std	Y+2, r19	; 0x02
     8a8:	2f 3f       	cpi	r18, 0xFF	; 255
     8aa:	3f 4f       	sbci	r19, 0xFF	; 255
     8ac:	21 f0       	breq	.+8      	; 0x8b6 <nvm_flash_erase_and_write_buffer+0x76>
     8ae:	11 e0       	ldi	r17, 0x01	; 1
     8b0:	02 c0       	rjmp	.+4      	; 0x8b6 <nvm_flash_erase_and_write_buffer+0x76>
     8b2:	29 82       	std	Y+1, r2	; 0x01
     8b4:	3a 82       	std	Y+2, r3	; 0x02
     8b6:	c1 14       	cp	r12, r1
     8b8:	d1 04       	cpc	r13, r1
     8ba:	01 f1       	breq	.+64     	; 0x8fc <nvm_flash_erase_and_write_buffer+0xbc>
     8bc:	8a 14       	cp	r8, r10
     8be:	9b 04       	cpc	r9, r11
     8c0:	69 f4       	brne	.+26     	; 0x8dc <nvm_flash_erase_and_write_buffer+0x9c>
     8c2:	e1 e0       	ldi	r30, 0x01	; 1
     8c4:	ce 1a       	sub	r12, r30
     8c6:	d1 08       	sbc	r13, r1
     8c8:	ff ef       	ldi	r31, 0xFF	; 255
     8ca:	8f 1a       	sub	r8, r31
     8cc:	9f 0a       	sbc	r9, r31
     8ce:	f3 01       	movw	r30, r6
     8d0:	21 91       	ld	r18, Z+
     8d2:	3f 01       	movw	r6, r30
     8d4:	29 83       	std	Y+1, r18	; 0x01
     8d6:	c1 14       	cp	r12, r1
     8d8:	d1 04       	cpc	r13, r1
     8da:	81 f0       	breq	.+32     	; 0x8fc <nvm_flash_erase_and_write_buffer+0xbc>
     8dc:	95 01       	movw	r18, r10
     8de:	2f 5f       	subi	r18, 0xFF	; 255
     8e0:	3f 4f       	sbci	r19, 0xFF	; 255
     8e2:	82 16       	cp	r8, r18
     8e4:	93 06       	cpc	r9, r19
     8e6:	51 f4       	brne	.+20     	; 0x8fc <nvm_flash_erase_and_write_buffer+0xbc>
     8e8:	f1 e0       	ldi	r31, 0x01	; 1
     8ea:	cf 1a       	sub	r12, r31
     8ec:	d1 08       	sbc	r13, r1
     8ee:	2f ef       	ldi	r18, 0xFF	; 255
     8f0:	82 1a       	sub	r8, r18
     8f2:	92 0a       	sbc	r9, r18
     8f4:	f3 01       	movw	r30, r6
     8f6:	21 91       	ld	r18, Z+
     8f8:	3f 01       	movw	r6, r30
     8fa:	2a 83       	std	Y+2, r18	; 0x02
     8fc:	49 81       	ldd	r20, Y+1	; 0x01
     8fe:	5a 81       	ldd	r21, Y+2	; 0x02
     900:	0e 94 15 13 	call	0x262a	; 0x262a <nvm_flash_load_word_to_buffer>
     904:	f2 e0       	ldi	r31, 0x02	; 2
     906:	af 0e       	add	r10, r31
     908:	b1 1c       	adc	r11, r1
     90a:	a4 14       	cp	r10, r4
     90c:	b5 04       	cpc	r11, r5
     90e:	09 f0       	breq	.+2      	; 0x912 <nvm_flash_erase_and_write_buffer+0xd2>
     910:	c0 cf       	rjmp	.-128    	; 0x892 <nvm_flash_erase_and_write_buffer+0x52>
     912:	b7 01       	movw	r22, r14
     914:	80 e0       	ldi	r24, 0x00	; 0
     916:	90 e0       	ldi	r25, 0x00	; 0
     918:	eb 82       	std	Y+3, r14	; 0x03
     91a:	7c 83       	std	Y+4, r23	; 0x04
     91c:	8d 83       	std	Y+5, r24	; 0x05
     91e:	9e 83       	std	Y+6, r25	; 0x06
     920:	11 23       	and	r17, r17
     922:	21 f0       	breq	.+8      	; 0x92c <nvm_flash_erase_and_write_buffer+0xec>
     924:	0e 94 6d 01 	call	0x2da	; 0x2da <nvm_wait_until_ready>
     928:	45 e2       	ldi	r20, 0x25	; 37
     92a:	03 c0       	rjmp	.+6      	; 0x932 <nvm_flash_erase_and_write_buffer+0xf2>
     92c:	0e 94 6d 01 	call	0x2da	; 0x2da <nvm_wait_until_ready>
     930:	44 e2       	ldi	r20, 0x24	; 36
     932:	6b 81       	ldd	r22, Y+3	; 0x03
     934:	7c 81       	ldd	r23, Y+4	; 0x04
     936:	8d 81       	ldd	r24, Y+5	; 0x05
     938:	9e 81       	ldd	r25, Y+6	; 0x06
     93a:	0e 94 06 13 	call	0x260c	; 0x260c <_etext>
     93e:	75 01       	movw	r14, r10
     940:	9e cf       	rjmp	.-196    	; 0x87e <nvm_flash_erase_and_write_buffer+0x3e>
     942:	26 96       	adiw	r28, 0x06	; 6
     944:	cd bf       	out	0x3d, r28	; 61
     946:	de bf       	out	0x3e, r29	; 62
     948:	df 91       	pop	r29
     94a:	cf 91       	pop	r28
     94c:	1f 91       	pop	r17
     94e:	0f 91       	pop	r16
     950:	ff 90       	pop	r15
     952:	ef 90       	pop	r14
     954:	df 90       	pop	r13
     956:	cf 90       	pop	r12
     958:	bf 90       	pop	r11
     95a:	af 90       	pop	r10
     95c:	9f 90       	pop	r9
     95e:	8f 90       	pop	r8
     960:	7f 90       	pop	r7
     962:	6f 90       	pop	r6
     964:	5f 90       	pop	r5
     966:	4f 90       	pop	r4
     968:	3f 90       	pop	r3
     96a:	2f 90       	pop	r2
     96c:	08 95       	ret

0000096e <nvm_fuses_read>:
     96e:	0f 93       	push	r16
     970:	1f 93       	push	r17
     972:	cf 93       	push	r28
     974:	df 93       	push	r29
     976:	1f 92       	push	r1
     978:	cd b7       	in	r28, 0x3d	; 61
     97a:	de b7       	in	r29, 0x3e	; 62
     97c:	89 83       	std	Y+1, r24	; 0x01
     97e:	0e 94 6d 01 	call	0x2da	; 0x2da <nvm_wait_until_ready>
     982:	00 ec       	ldi	r16, 0xC0	; 192
     984:	11 e0       	ldi	r17, 0x01	; 1
     986:	89 81       	ldd	r24, Y+1	; 0x01
     988:	f8 01       	movw	r30, r16
     98a:	80 83       	st	Z, r24
     98c:	87 e0       	ldi	r24, 0x07	; 7
     98e:	0e 94 77 01 	call	0x2ee	; 0x2ee <nvm_issue_command>
     992:	f8 01       	movw	r30, r16
     994:	84 81       	ldd	r24, Z+4	; 0x04
     996:	0f 90       	pop	r0
     998:	df 91       	pop	r29
     99a:	cf 91       	pop	r28
     99c:	1f 91       	pop	r17
     99e:	0f 91       	pop	r16
     9a0:	08 95       	ret

000009a2 <nvm_read_byte>:
     9a2:	40 91 ca 01 	lds	r20, 0x01CA
     9a6:	e6 2f       	mov	r30, r22
     9a8:	f7 2f       	mov	r31, r23
     9aa:	80 93 ca 01 	sts	0x01CA, r24
     9ae:	84 91       	lpm	r24, Z
     9b0:	40 93 ca 01 	sts	0x01CA, r20
     9b4:	08 95       	ret

000009b6 <ccp_write_io>:
     9b6:	1b be       	out	0x3b, r1	; 59
     9b8:	fc 01       	movw	r30, r24
     9ba:	28 ed       	ldi	r18, 0xD8	; 216
     9bc:	24 bf       	out	0x34, r18	; 52
     9be:	60 83       	st	Z, r22
     9c0:	08 95       	ret

000009c2 <__vector_71>:
     9c2:	1f 92       	push	r1
     9c4:	0f 92       	push	r0
     9c6:	0f b6       	in	r0, 0x3f	; 63
     9c8:	0f 92       	push	r0
     9ca:	11 24       	eor	r1, r1
     9cc:	0b b6       	in	r0, 0x3b	; 59
     9ce:	0f 92       	push	r0
     9d0:	2f 93       	push	r18
     9d2:	3f 93       	push	r19
     9d4:	4f 93       	push	r20
     9d6:	5f 93       	push	r21
     9d8:	6f 93       	push	r22
     9da:	7f 93       	push	r23
     9dc:	8f 93       	push	r24
     9de:	9f 93       	push	r25
     9e0:	af 93       	push	r26
     9e2:	bf 93       	push	r27
     9e4:	ef 93       	push	r30
     9e6:	ff 93       	push	r31
     9e8:	40 91 24 02 	lds	r20, 0x0224
     9ec:	50 91 25 02 	lds	r21, 0x0225
     9f0:	e0 91 aa 26 	lds	r30, 0x26AA
     9f4:	f0 91 ab 26 	lds	r31, 0x26AB
     9f8:	61 e0       	ldi	r22, 0x01	; 1
     9fa:	80 e0       	ldi	r24, 0x00	; 0
     9fc:	92 e0       	ldi	r25, 0x02	; 2
     9fe:	09 95       	icall
     a00:	ff 91       	pop	r31
     a02:	ef 91       	pop	r30
     a04:	bf 91       	pop	r27
     a06:	af 91       	pop	r26
     a08:	9f 91       	pop	r25
     a0a:	8f 91       	pop	r24
     a0c:	7f 91       	pop	r23
     a0e:	6f 91       	pop	r22
     a10:	5f 91       	pop	r21
     a12:	4f 91       	pop	r20
     a14:	3f 91       	pop	r19
     a16:	2f 91       	pop	r18
     a18:	0f 90       	pop	r0
     a1a:	0b be       	out	0x3b, r0	; 59
     a1c:	0f 90       	pop	r0
     a1e:	0f be       	out	0x3f, r0	; 63
     a20:	0f 90       	pop	r0
     a22:	1f 90       	pop	r1
     a24:	18 95       	reti

00000a26 <__vector_72>:
     a26:	1f 92       	push	r1
     a28:	0f 92       	push	r0
     a2a:	0f b6       	in	r0, 0x3f	; 63
     a2c:	0f 92       	push	r0
     a2e:	11 24       	eor	r1, r1
     a30:	0b b6       	in	r0, 0x3b	; 59
     a32:	0f 92       	push	r0
     a34:	2f 93       	push	r18
     a36:	3f 93       	push	r19
     a38:	4f 93       	push	r20
     a3a:	5f 93       	push	r21
     a3c:	6f 93       	push	r22
     a3e:	7f 93       	push	r23
     a40:	8f 93       	push	r24
     a42:	9f 93       	push	r25
     a44:	af 93       	push	r26
     a46:	bf 93       	push	r27
     a48:	ef 93       	push	r30
     a4a:	ff 93       	push	r31
     a4c:	40 91 2c 02 	lds	r20, 0x022C
     a50:	50 91 2d 02 	lds	r21, 0x022D
     a54:	e0 91 aa 26 	lds	r30, 0x26AA
     a58:	f0 91 ab 26 	lds	r31, 0x26AB
     a5c:	62 e0       	ldi	r22, 0x02	; 2
     a5e:	80 e0       	ldi	r24, 0x00	; 0
     a60:	92 e0       	ldi	r25, 0x02	; 2
     a62:	09 95       	icall
     a64:	ff 91       	pop	r31
     a66:	ef 91       	pop	r30
     a68:	bf 91       	pop	r27
     a6a:	af 91       	pop	r26
     a6c:	9f 91       	pop	r25
     a6e:	8f 91       	pop	r24
     a70:	7f 91       	pop	r23
     a72:	6f 91       	pop	r22
     a74:	5f 91       	pop	r21
     a76:	4f 91       	pop	r20
     a78:	3f 91       	pop	r19
     a7a:	2f 91       	pop	r18
     a7c:	0f 90       	pop	r0
     a7e:	0b be       	out	0x3b, r0	; 59
     a80:	0f 90       	pop	r0
     a82:	0f be       	out	0x3f, r0	; 63
     a84:	0f 90       	pop	r0
     a86:	1f 90       	pop	r1
     a88:	18 95       	reti

00000a8a <__vector_73>:
     a8a:	1f 92       	push	r1
     a8c:	0f 92       	push	r0
     a8e:	0f b6       	in	r0, 0x3f	; 63
     a90:	0f 92       	push	r0
     a92:	11 24       	eor	r1, r1
     a94:	0b b6       	in	r0, 0x3b	; 59
     a96:	0f 92       	push	r0
     a98:	2f 93       	push	r18
     a9a:	3f 93       	push	r19
     a9c:	4f 93       	push	r20
     a9e:	5f 93       	push	r21
     aa0:	6f 93       	push	r22
     aa2:	7f 93       	push	r23
     aa4:	8f 93       	push	r24
     aa6:	9f 93       	push	r25
     aa8:	af 93       	push	r26
     aaa:	bf 93       	push	r27
     aac:	ef 93       	push	r30
     aae:	ff 93       	push	r31
     ab0:	40 91 34 02 	lds	r20, 0x0234
     ab4:	50 91 35 02 	lds	r21, 0x0235
     ab8:	e0 91 aa 26 	lds	r30, 0x26AA
     abc:	f0 91 ab 26 	lds	r31, 0x26AB
     ac0:	64 e0       	ldi	r22, 0x04	; 4
     ac2:	80 e0       	ldi	r24, 0x00	; 0
     ac4:	92 e0       	ldi	r25, 0x02	; 2
     ac6:	09 95       	icall
     ac8:	ff 91       	pop	r31
     aca:	ef 91       	pop	r30
     acc:	bf 91       	pop	r27
     ace:	af 91       	pop	r26
     ad0:	9f 91       	pop	r25
     ad2:	8f 91       	pop	r24
     ad4:	7f 91       	pop	r23
     ad6:	6f 91       	pop	r22
     ad8:	5f 91       	pop	r21
     ada:	4f 91       	pop	r20
     adc:	3f 91       	pop	r19
     ade:	2f 91       	pop	r18
     ae0:	0f 90       	pop	r0
     ae2:	0b be       	out	0x3b, r0	; 59
     ae4:	0f 90       	pop	r0
     ae6:	0f be       	out	0x3f, r0	; 63
     ae8:	0f 90       	pop	r0
     aea:	1f 90       	pop	r1
     aec:	18 95       	reti

00000aee <__vector_74>:
     aee:	1f 92       	push	r1
     af0:	0f 92       	push	r0
     af2:	0f b6       	in	r0, 0x3f	; 63
     af4:	0f 92       	push	r0
     af6:	11 24       	eor	r1, r1
     af8:	0b b6       	in	r0, 0x3b	; 59
     afa:	0f 92       	push	r0
     afc:	2f 93       	push	r18
     afe:	3f 93       	push	r19
     b00:	4f 93       	push	r20
     b02:	5f 93       	push	r21
     b04:	6f 93       	push	r22
     b06:	7f 93       	push	r23
     b08:	8f 93       	push	r24
     b0a:	9f 93       	push	r25
     b0c:	af 93       	push	r26
     b0e:	bf 93       	push	r27
     b10:	ef 93       	push	r30
     b12:	ff 93       	push	r31
     b14:	40 91 3c 02 	lds	r20, 0x023C
     b18:	50 91 3d 02 	lds	r21, 0x023D
     b1c:	e0 91 aa 26 	lds	r30, 0x26AA
     b20:	f0 91 ab 26 	lds	r31, 0x26AB
     b24:	68 e0       	ldi	r22, 0x08	; 8
     b26:	80 e0       	ldi	r24, 0x00	; 0
     b28:	92 e0       	ldi	r25, 0x02	; 2
     b2a:	09 95       	icall
     b2c:	ff 91       	pop	r31
     b2e:	ef 91       	pop	r30
     b30:	bf 91       	pop	r27
     b32:	af 91       	pop	r26
     b34:	9f 91       	pop	r25
     b36:	8f 91       	pop	r24
     b38:	7f 91       	pop	r23
     b3a:	6f 91       	pop	r22
     b3c:	5f 91       	pop	r21
     b3e:	4f 91       	pop	r20
     b40:	3f 91       	pop	r19
     b42:	2f 91       	pop	r18
     b44:	0f 90       	pop	r0
     b46:	0b be       	out	0x3b, r0	; 59
     b48:	0f 90       	pop	r0
     b4a:	0f be       	out	0x3f, r0	; 63
     b4c:	0f 90       	pop	r0
     b4e:	1f 90       	pop	r1
     b50:	18 95       	reti

00000b52 <__vector_39>:
     b52:	1f 92       	push	r1
     b54:	0f 92       	push	r0
     b56:	0f b6       	in	r0, 0x3f	; 63
     b58:	0f 92       	push	r0
     b5a:	11 24       	eor	r1, r1
     b5c:	0b b6       	in	r0, 0x3b	; 59
     b5e:	0f 92       	push	r0
     b60:	2f 93       	push	r18
     b62:	3f 93       	push	r19
     b64:	4f 93       	push	r20
     b66:	5f 93       	push	r21
     b68:	6f 93       	push	r22
     b6a:	7f 93       	push	r23
     b6c:	8f 93       	push	r24
     b6e:	9f 93       	push	r25
     b70:	af 93       	push	r26
     b72:	bf 93       	push	r27
     b74:	ef 93       	push	r30
     b76:	ff 93       	push	r31
     b78:	40 91 64 02 	lds	r20, 0x0264
     b7c:	50 91 65 02 	lds	r21, 0x0265
     b80:	e0 91 a8 26 	lds	r30, 0x26A8
     b84:	f0 91 a9 26 	lds	r31, 0x26A9
     b88:	61 e0       	ldi	r22, 0x01	; 1
     b8a:	80 e4       	ldi	r24, 0x40	; 64
     b8c:	92 e0       	ldi	r25, 0x02	; 2
     b8e:	09 95       	icall
     b90:	ff 91       	pop	r31
     b92:	ef 91       	pop	r30
     b94:	bf 91       	pop	r27
     b96:	af 91       	pop	r26
     b98:	9f 91       	pop	r25
     b9a:	8f 91       	pop	r24
     b9c:	7f 91       	pop	r23
     b9e:	6f 91       	pop	r22
     ba0:	5f 91       	pop	r21
     ba2:	4f 91       	pop	r20
     ba4:	3f 91       	pop	r19
     ba6:	2f 91       	pop	r18
     ba8:	0f 90       	pop	r0
     baa:	0b be       	out	0x3b, r0	; 59
     bac:	0f 90       	pop	r0
     bae:	0f be       	out	0x3f, r0	; 63
     bb0:	0f 90       	pop	r0
     bb2:	1f 90       	pop	r1
     bb4:	18 95       	reti

00000bb6 <__vector_40>:
     bb6:	1f 92       	push	r1
     bb8:	0f 92       	push	r0
     bba:	0f b6       	in	r0, 0x3f	; 63
     bbc:	0f 92       	push	r0
     bbe:	11 24       	eor	r1, r1
     bc0:	0b b6       	in	r0, 0x3b	; 59
     bc2:	0f 92       	push	r0
     bc4:	2f 93       	push	r18
     bc6:	3f 93       	push	r19
     bc8:	4f 93       	push	r20
     bca:	5f 93       	push	r21
     bcc:	6f 93       	push	r22
     bce:	7f 93       	push	r23
     bd0:	8f 93       	push	r24
     bd2:	9f 93       	push	r25
     bd4:	af 93       	push	r26
     bd6:	bf 93       	push	r27
     bd8:	ef 93       	push	r30
     bda:	ff 93       	push	r31
     bdc:	40 91 6c 02 	lds	r20, 0x026C
     be0:	50 91 6d 02 	lds	r21, 0x026D
     be4:	e0 91 a8 26 	lds	r30, 0x26A8
     be8:	f0 91 a9 26 	lds	r31, 0x26A9
     bec:	62 e0       	ldi	r22, 0x02	; 2
     bee:	80 e4       	ldi	r24, 0x40	; 64
     bf0:	92 e0       	ldi	r25, 0x02	; 2
     bf2:	09 95       	icall
     bf4:	ff 91       	pop	r31
     bf6:	ef 91       	pop	r30
     bf8:	bf 91       	pop	r27
     bfa:	af 91       	pop	r26
     bfc:	9f 91       	pop	r25
     bfe:	8f 91       	pop	r24
     c00:	7f 91       	pop	r23
     c02:	6f 91       	pop	r22
     c04:	5f 91       	pop	r21
     c06:	4f 91       	pop	r20
     c08:	3f 91       	pop	r19
     c0a:	2f 91       	pop	r18
     c0c:	0f 90       	pop	r0
     c0e:	0b be       	out	0x3b, r0	; 59
     c10:	0f 90       	pop	r0
     c12:	0f be       	out	0x3f, r0	; 63
     c14:	0f 90       	pop	r0
     c16:	1f 90       	pop	r1
     c18:	18 95       	reti

00000c1a <__vector_41>:
     c1a:	1f 92       	push	r1
     c1c:	0f 92       	push	r0
     c1e:	0f b6       	in	r0, 0x3f	; 63
     c20:	0f 92       	push	r0
     c22:	11 24       	eor	r1, r1
     c24:	0b b6       	in	r0, 0x3b	; 59
     c26:	0f 92       	push	r0
     c28:	2f 93       	push	r18
     c2a:	3f 93       	push	r19
     c2c:	4f 93       	push	r20
     c2e:	5f 93       	push	r21
     c30:	6f 93       	push	r22
     c32:	7f 93       	push	r23
     c34:	8f 93       	push	r24
     c36:	9f 93       	push	r25
     c38:	af 93       	push	r26
     c3a:	bf 93       	push	r27
     c3c:	ef 93       	push	r30
     c3e:	ff 93       	push	r31
     c40:	40 91 74 02 	lds	r20, 0x0274
     c44:	50 91 75 02 	lds	r21, 0x0275
     c48:	e0 91 a8 26 	lds	r30, 0x26A8
     c4c:	f0 91 a9 26 	lds	r31, 0x26A9
     c50:	64 e0       	ldi	r22, 0x04	; 4
     c52:	80 e4       	ldi	r24, 0x40	; 64
     c54:	92 e0       	ldi	r25, 0x02	; 2
     c56:	09 95       	icall
     c58:	ff 91       	pop	r31
     c5a:	ef 91       	pop	r30
     c5c:	bf 91       	pop	r27
     c5e:	af 91       	pop	r26
     c60:	9f 91       	pop	r25
     c62:	8f 91       	pop	r24
     c64:	7f 91       	pop	r23
     c66:	6f 91       	pop	r22
     c68:	5f 91       	pop	r21
     c6a:	4f 91       	pop	r20
     c6c:	3f 91       	pop	r19
     c6e:	2f 91       	pop	r18
     c70:	0f 90       	pop	r0
     c72:	0b be       	out	0x3b, r0	; 59
     c74:	0f 90       	pop	r0
     c76:	0f be       	out	0x3f, r0	; 63
     c78:	0f 90       	pop	r0
     c7a:	1f 90       	pop	r1
     c7c:	18 95       	reti

00000c7e <__vector_42>:
     c7e:	1f 92       	push	r1
     c80:	0f 92       	push	r0
     c82:	0f b6       	in	r0, 0x3f	; 63
     c84:	0f 92       	push	r0
     c86:	11 24       	eor	r1, r1
     c88:	0b b6       	in	r0, 0x3b	; 59
     c8a:	0f 92       	push	r0
     c8c:	2f 93       	push	r18
     c8e:	3f 93       	push	r19
     c90:	4f 93       	push	r20
     c92:	5f 93       	push	r21
     c94:	6f 93       	push	r22
     c96:	7f 93       	push	r23
     c98:	8f 93       	push	r24
     c9a:	9f 93       	push	r25
     c9c:	af 93       	push	r26
     c9e:	bf 93       	push	r27
     ca0:	ef 93       	push	r30
     ca2:	ff 93       	push	r31
     ca4:	40 91 7c 02 	lds	r20, 0x027C
     ca8:	50 91 7d 02 	lds	r21, 0x027D
     cac:	e0 91 a8 26 	lds	r30, 0x26A8
     cb0:	f0 91 a9 26 	lds	r31, 0x26A9
     cb4:	68 e0       	ldi	r22, 0x08	; 8
     cb6:	80 e4       	ldi	r24, 0x40	; 64
     cb8:	92 e0       	ldi	r25, 0x02	; 2
     cba:	09 95       	icall
     cbc:	ff 91       	pop	r31
     cbe:	ef 91       	pop	r30
     cc0:	bf 91       	pop	r27
     cc2:	af 91       	pop	r26
     cc4:	9f 91       	pop	r25
     cc6:	8f 91       	pop	r24
     cc8:	7f 91       	pop	r23
     cca:	6f 91       	pop	r22
     ccc:	5f 91       	pop	r21
     cce:	4f 91       	pop	r20
     cd0:	3f 91       	pop	r19
     cd2:	2f 91       	pop	r18
     cd4:	0f 90       	pop	r0
     cd6:	0b be       	out	0x3b, r0	; 59
     cd8:	0f 90       	pop	r0
     cda:	0f be       	out	0x3f, r0	; 63
     cdc:	0f 90       	pop	r0
     cde:	1f 90       	pop	r1
     ce0:	18 95       	reti

00000ce2 <adc_write_configuration>:
     ce2:	df 92       	push	r13
     ce4:	ef 92       	push	r14
     ce6:	ff 92       	push	r15
     ce8:	0f 93       	push	r16
     cea:	1f 93       	push	r17
     cec:	cf 93       	push	r28
     cee:	df 93       	push	r29
     cf0:	7c 01       	movw	r14, r24
     cf2:	8b 01       	movw	r16, r22
     cf4:	e1 14       	cp	r14, r1
     cf6:	82 e0       	ldi	r24, 0x02	; 2
     cf8:	f8 06       	cpc	r15, r24
     cfa:	51 f4       	brne	.+20     	; 0xd10 <adc_write_configuration+0x2e>
     cfc:	61 e2       	ldi	r22, 0x21	; 33
     cfe:	70 e0       	ldi	r23, 0x00	; 0
     d00:	82 e0       	ldi	r24, 0x02	; 2
     d02:	0e 94 d1 04 	call	0x9a2	; 0x9a2 <nvm_read_byte>
     d06:	c8 2f       	mov	r28, r24
     d08:	d0 e0       	ldi	r29, 0x00	; 0
     d0a:	60 e2       	ldi	r22, 0x20	; 32
     d0c:	70 e0       	ldi	r23, 0x00	; 0
     d0e:	0e c0       	rjmp	.+28     	; 0xd2c <adc_write_configuration+0x4a>
     d10:	e0 e4       	ldi	r30, 0x40	; 64
     d12:	ee 16       	cp	r14, r30
     d14:	e2 e0       	ldi	r30, 0x02	; 2
     d16:	fe 06       	cpc	r15, r30
     d18:	d1 f5       	brne	.+116    	; 0xd8e <adc_write_configuration+0xac>
     d1a:	65 e2       	ldi	r22, 0x25	; 37
     d1c:	70 e0       	ldi	r23, 0x00	; 0
     d1e:	82 e0       	ldi	r24, 0x02	; 2
     d20:	0e 94 d1 04 	call	0x9a2	; 0x9a2 <nvm_read_byte>
     d24:	c8 2f       	mov	r28, r24
     d26:	d0 e0       	ldi	r29, 0x00	; 0
     d28:	64 e2       	ldi	r22, 0x24	; 36
     d2a:	70 e0       	ldi	r23, 0x00	; 0
     d2c:	82 e0       	ldi	r24, 0x02	; 2
     d2e:	0e 94 d1 04 	call	0x9a2	; 0x9a2 <nvm_read_byte>
     d32:	dc 2f       	mov	r29, r28
     d34:	cc 27       	eor	r28, r28
     d36:	c8 2b       	or	r28, r24
     d38:	df b6       	in	r13, 0x3f	; 63
     d3a:	f8 94       	cli
     d3c:	c7 01       	movw	r24, r14
     d3e:	0e 94 9e 07 	call	0xf3c	; 0xf3c <adc_enable_clock>
     d42:	f7 01       	movw	r30, r14
     d44:	80 81       	ld	r24, Z
     d46:	92 e0       	ldi	r25, 0x02	; 2
     d48:	90 83       	st	Z, r25
     d4a:	c4 87       	std	Z+12, r28	; 0x0c
     d4c:	d5 87       	std	Z+13, r29	; 0x0d
     d4e:	f8 01       	movw	r30, r16
     d50:	25 81       	ldd	r18, Z+5	; 0x05
     d52:	36 81       	ldd	r19, Z+6	; 0x06
     d54:	f7 01       	movw	r30, r14
     d56:	20 8f       	std	Z+24, r18	; 0x18
     d58:	31 8f       	std	Z+25, r19	; 0x19
     d5a:	f8 01       	movw	r30, r16
     d5c:	92 81       	ldd	r25, Z+2	; 0x02
     d5e:	f7 01       	movw	r30, r14
     d60:	92 83       	std	Z+2, r25	; 0x02
     d62:	f8 01       	movw	r30, r16
     d64:	94 81       	ldd	r25, Z+4	; 0x04
     d66:	f7 01       	movw	r30, r14
     d68:	94 83       	std	Z+4, r25	; 0x04
     d6a:	f8 01       	movw	r30, r16
     d6c:	93 81       	ldd	r25, Z+3	; 0x03
     d6e:	f7 01       	movw	r30, r14
     d70:	93 83       	std	Z+3, r25	; 0x03
     d72:	f8 01       	movw	r30, r16
     d74:	91 81       	ldd	r25, Z+1	; 0x01
     d76:	f7 01       	movw	r30, r14
     d78:	91 83       	std	Z+1, r25	; 0x01
     d7a:	81 70       	andi	r24, 0x01	; 1
     d7c:	f8 01       	movw	r30, r16
     d7e:	90 81       	ld	r25, Z
     d80:	89 2b       	or	r24, r25
     d82:	f7 01       	movw	r30, r14
     d84:	80 83       	st	Z, r24
     d86:	c7 01       	movw	r24, r14
     d88:	0e 94 bd 07 	call	0xf7a	; 0xf7a <adc_disable_clock>
     d8c:	df be       	out	0x3f, r13	; 63
     d8e:	df 91       	pop	r29
     d90:	cf 91       	pop	r28
     d92:	1f 91       	pop	r17
     d94:	0f 91       	pop	r16
     d96:	ff 90       	pop	r15
     d98:	ef 90       	pop	r14
     d9a:	df 90       	pop	r13
     d9c:	08 95       	ret

00000d9e <adc_read_configuration>:
     d9e:	ff 92       	push	r15
     da0:	0f 93       	push	r16
     da2:	1f 93       	push	r17
     da4:	cf 93       	push	r28
     da6:	df 93       	push	r29
     da8:	ec 01       	movw	r28, r24
     daa:	8b 01       	movw	r16, r22
     dac:	ff b6       	in	r15, 0x3f	; 63
     dae:	f8 94       	cli
     db0:	0e 94 9e 07 	call	0xf3c	; 0xf3c <adc_enable_clock>
     db4:	88 81       	ld	r24, Y
     db6:	80 7c       	andi	r24, 0xC0	; 192
     db8:	f8 01       	movw	r30, r16
     dba:	80 83       	st	Z, r24
     dbc:	88 8d       	ldd	r24, Y+24	; 0x18
     dbe:	99 8d       	ldd	r25, Y+25	; 0x19
     dc0:	85 83       	std	Z+5, r24	; 0x05
     dc2:	96 83       	std	Z+6, r25	; 0x06
     dc4:	8a 81       	ldd	r24, Y+2	; 0x02
     dc6:	82 83       	std	Z+2, r24	; 0x02
     dc8:	8c 81       	ldd	r24, Y+4	; 0x04
     dca:	84 83       	std	Z+4, r24	; 0x04
     dcc:	8b 81       	ldd	r24, Y+3	; 0x03
     dce:	83 83       	std	Z+3, r24	; 0x03
     dd0:	89 81       	ldd	r24, Y+1	; 0x01
     dd2:	81 83       	std	Z+1, r24	; 0x01
     dd4:	ce 01       	movw	r24, r28
     dd6:	0e 94 bd 07 	call	0xf7a	; 0xf7a <adc_disable_clock>
     dda:	ff be       	out	0x3f, r15	; 63
     ddc:	df 91       	pop	r29
     dde:	cf 91       	pop	r28
     de0:	1f 91       	pop	r17
     de2:	0f 91       	pop	r16
     de4:	ff 90       	pop	r15
     de6:	08 95       	ret

00000de8 <adcch_write_configuration>:
     de8:	af 92       	push	r10
     dea:	bf 92       	push	r11
     dec:	df 92       	push	r13
     dee:	ef 92       	push	r14
     df0:	ff 92       	push	r15
     df2:	0f 93       	push	r16
     df4:	1f 93       	push	r17
     df6:	cf 93       	push	r28
     df8:	df 93       	push	r29
     dfa:	1f 92       	push	r1
     dfc:	cd b7       	in	r28, 0x3d	; 61
     dfe:	de b7       	in	r29, 0x3e	; 62
     e00:	7c 01       	movw	r14, r24
     e02:	8a 01       	movw	r16, r20
     e04:	86 2f       	mov	r24, r22
     e06:	83 70       	andi	r24, 0x03	; 3
     e08:	29 f4       	brne	.+10     	; 0xe14 <adcch_write_configuration+0x2c>
     e0a:	86 2f       	mov	r24, r22
     e0c:	86 95       	lsr	r24
     e0e:	86 95       	lsr	r24
     e10:	92 e0       	ldi	r25, 0x02	; 2
     e12:	02 c0       	rjmp	.+4      	; 0xe18 <adcch_write_configuration+0x30>
     e14:	86 2f       	mov	r24, r22
     e16:	90 e0       	ldi	r25, 0x00	; 0
     e18:	80 ff       	sbrs	r24, 0
     e1a:	9f 5f       	subi	r25, 0xFF	; 255
     e1c:	57 01       	movw	r10, r14
     e1e:	80 e2       	ldi	r24, 0x20	; 32
     e20:	a8 0e       	add	r10, r24
     e22:	b1 1c       	adc	r11, r1
     e24:	e8 e0       	ldi	r30, 0x08	; 8
     e26:	9e 9f       	mul	r25, r30
     e28:	a0 0c       	add	r10, r0
     e2a:	b1 1c       	adc	r11, r1
     e2c:	11 24       	eor	r1, r1
     e2e:	df b6       	in	r13, 0x3f	; 63
     e30:	f8 94       	cli
     e32:	c7 01       	movw	r24, r14
     e34:	69 83       	std	Y+1, r22	; 0x01
     e36:	0e 94 9e 07 	call	0xf3c	; 0xf3c <adc_enable_clock>
     e3a:	f8 01       	movw	r30, r16
     e3c:	80 81       	ld	r24, Z
     e3e:	f5 01       	movw	r30, r10
     e40:	80 83       	st	Z, r24
     e42:	f8 01       	movw	r30, r16
     e44:	82 81       	ldd	r24, Z+2	; 0x02
     e46:	f5 01       	movw	r30, r10
     e48:	82 83       	std	Z+2, r24	; 0x02
     e4a:	f8 01       	movw	r30, r16
     e4c:	81 81       	ldd	r24, Z+1	; 0x01
     e4e:	f5 01       	movw	r30, r10
     e50:	81 83       	std	Z+1, r24	; 0x01
     e52:	69 81       	ldd	r22, Y+1	; 0x01
     e54:	60 ff       	sbrs	r22, 0
     e56:	04 c0       	rjmp	.+8      	; 0xe60 <adcch_write_configuration+0x78>
     e58:	f8 01       	movw	r30, r16
     e5a:	83 81       	ldd	r24, Z+3	; 0x03
     e5c:	f5 01       	movw	r30, r10
     e5e:	86 83       	std	Z+6, r24	; 0x06
     e60:	c7 01       	movw	r24, r14
     e62:	0e 94 bd 07 	call	0xf7a	; 0xf7a <adc_disable_clock>
     e66:	df be       	out	0x3f, r13	; 63
     e68:	0f 90       	pop	r0
     e6a:	df 91       	pop	r29
     e6c:	cf 91       	pop	r28
     e6e:	1f 91       	pop	r17
     e70:	0f 91       	pop	r16
     e72:	ff 90       	pop	r15
     e74:	ef 90       	pop	r14
     e76:	df 90       	pop	r13
     e78:	bf 90       	pop	r11
     e7a:	af 90       	pop	r10
     e7c:	08 95       	ret

00000e7e <adcch_read_configuration>:
     e7e:	af 92       	push	r10
     e80:	bf 92       	push	r11
     e82:	df 92       	push	r13
     e84:	ef 92       	push	r14
     e86:	ff 92       	push	r15
     e88:	0f 93       	push	r16
     e8a:	1f 93       	push	r17
     e8c:	cf 93       	push	r28
     e8e:	df 93       	push	r29
     e90:	1f 92       	push	r1
     e92:	cd b7       	in	r28, 0x3d	; 61
     e94:	de b7       	in	r29, 0x3e	; 62
     e96:	7c 01       	movw	r14, r24
     e98:	8a 01       	movw	r16, r20
     e9a:	86 2f       	mov	r24, r22
     e9c:	83 70       	andi	r24, 0x03	; 3
     e9e:	29 f4       	brne	.+10     	; 0xeaa <adcch_read_configuration+0x2c>
     ea0:	86 2f       	mov	r24, r22
     ea2:	86 95       	lsr	r24
     ea4:	86 95       	lsr	r24
     ea6:	92 e0       	ldi	r25, 0x02	; 2
     ea8:	02 c0       	rjmp	.+4      	; 0xeae <adcch_read_configuration+0x30>
     eaa:	86 2f       	mov	r24, r22
     eac:	90 e0       	ldi	r25, 0x00	; 0
     eae:	80 ff       	sbrs	r24, 0
     eb0:	9f 5f       	subi	r25, 0xFF	; 255
     eb2:	57 01       	movw	r10, r14
     eb4:	80 e2       	ldi	r24, 0x20	; 32
     eb6:	a8 0e       	add	r10, r24
     eb8:	b1 1c       	adc	r11, r1
     eba:	e8 e0       	ldi	r30, 0x08	; 8
     ebc:	9e 9f       	mul	r25, r30
     ebe:	a0 0c       	add	r10, r0
     ec0:	b1 1c       	adc	r11, r1
     ec2:	11 24       	eor	r1, r1
     ec4:	df b6       	in	r13, 0x3f	; 63
     ec6:	f8 94       	cli
     ec8:	c7 01       	movw	r24, r14
     eca:	69 83       	std	Y+1, r22	; 0x01
     ecc:	0e 94 9e 07 	call	0xf3c	; 0xf3c <adc_enable_clock>
     ed0:	f5 01       	movw	r30, r10
     ed2:	80 81       	ld	r24, Z
     ed4:	f8 01       	movw	r30, r16
     ed6:	80 83       	st	Z, r24
     ed8:	f5 01       	movw	r30, r10
     eda:	82 81       	ldd	r24, Z+2	; 0x02
     edc:	f8 01       	movw	r30, r16
     ede:	82 83       	std	Z+2, r24	; 0x02
     ee0:	f5 01       	movw	r30, r10
     ee2:	81 81       	ldd	r24, Z+1	; 0x01
     ee4:	f8 01       	movw	r30, r16
     ee6:	81 83       	std	Z+1, r24	; 0x01
     ee8:	69 81       	ldd	r22, Y+1	; 0x01
     eea:	60 ff       	sbrs	r22, 0
     eec:	04 c0       	rjmp	.+8      	; 0xef6 <adcch_read_configuration+0x78>
     eee:	f5 01       	movw	r30, r10
     ef0:	86 81       	ldd	r24, Z+6	; 0x06
     ef2:	f8 01       	movw	r30, r16
     ef4:	83 83       	std	Z+3, r24	; 0x03
     ef6:	c7 01       	movw	r24, r14
     ef8:	0e 94 bd 07 	call	0xf7a	; 0xf7a <adc_disable_clock>
     efc:	df be       	out	0x3f, r13	; 63
     efe:	0f 90       	pop	r0
     f00:	df 91       	pop	r29
     f02:	cf 91       	pop	r28
     f04:	1f 91       	pop	r17
     f06:	0f 91       	pop	r16
     f08:	ff 90       	pop	r15
     f0a:	ef 90       	pop	r14
     f0c:	df 90       	pop	r13
     f0e:	bf 90       	pop	r11
     f10:	af 90       	pop	r10
     f12:	08 95       	ret

00000f14 <adc_set_callback>:
     f14:	2f b7       	in	r18, 0x3f	; 63
     f16:	f8 94       	cli
     f18:	81 15       	cp	r24, r1
     f1a:	32 e0       	ldi	r19, 0x02	; 2
     f1c:	93 07       	cpc	r25, r19
     f1e:	29 f4       	brne	.+10     	; 0xf2a <adc_set_callback+0x16>
     f20:	60 93 aa 26 	sts	0x26AA, r22
     f24:	70 93 ab 26 	sts	0x26AB, r23
     f28:	07 c0       	rjmp	.+14     	; 0xf38 <adc_set_callback+0x24>
     f2a:	80 34       	cpi	r24, 0x40	; 64
     f2c:	92 40       	sbci	r25, 0x02	; 2
     f2e:	21 f4       	brne	.+8      	; 0xf38 <adc_set_callback+0x24>
     f30:	60 93 a8 26 	sts	0x26A8, r22
     f34:	70 93 a9 26 	sts	0x26A9, r23
     f38:	2f bf       	out	0x3f, r18	; 63
     f3a:	08 95       	ret

00000f3c <adc_enable_clock>:
     f3c:	81 15       	cp	r24, r1
     f3e:	22 e0       	ldi	r18, 0x02	; 2
     f40:	92 07       	cpc	r25, r18
     f42:	59 f4       	brne	.+22     	; 0xf5a <adc_enable_clock+0x1e>
     f44:	80 91 a5 24 	lds	r24, 0x24A5
     f48:	91 e0       	ldi	r25, 0x01	; 1
     f4a:	98 0f       	add	r25, r24
     f4c:	90 93 a5 24 	sts	0x24A5, r25
     f50:	81 11       	cpse	r24, r1
     f52:	12 c0       	rjmp	.+36     	; 0xf78 <adc_enable_clock+0x3c>
     f54:	62 e0       	ldi	r22, 0x02	; 2
     f56:	81 e0       	ldi	r24, 0x01	; 1
     f58:	0d c0       	rjmp	.+26     	; 0xf74 <adc_enable_clock+0x38>
     f5a:	80 34       	cpi	r24, 0x40	; 64
     f5c:	92 40       	sbci	r25, 0x02	; 2
     f5e:	61 f4       	brne	.+24     	; 0xf78 <adc_enable_clock+0x3c>
     f60:	80 91 a4 24 	lds	r24, 0x24A4
     f64:	91 e0       	ldi	r25, 0x01	; 1
     f66:	98 0f       	add	r25, r24
     f68:	90 93 a4 24 	sts	0x24A4, r25
     f6c:	81 11       	cpse	r24, r1
     f6e:	04 c0       	rjmp	.+8      	; 0xf78 <adc_enable_clock+0x3c>
     f70:	62 e0       	ldi	r22, 0x02	; 2
     f72:	82 e0       	ldi	r24, 0x02	; 2
     f74:	0c 94 90 0e 	jmp	0x1d20	; 0x1d20 <sysclk_enable_module>
     f78:	08 95       	ret

00000f7a <adc_disable_clock>:
     f7a:	81 15       	cp	r24, r1
     f7c:	22 e0       	ldi	r18, 0x02	; 2
     f7e:	92 07       	cpc	r25, r18
     f80:	51 f4       	brne	.+20     	; 0xf96 <adc_disable_clock+0x1c>
     f82:	80 91 a5 24 	lds	r24, 0x24A5
     f86:	81 50       	subi	r24, 0x01	; 1
     f88:	80 93 a5 24 	sts	0x24A5, r24
     f8c:	81 11       	cpse	r24, r1
     f8e:	11 c0       	rjmp	.+34     	; 0xfb2 <adc_disable_clock+0x38>
     f90:	62 e0       	ldi	r22, 0x02	; 2
     f92:	81 e0       	ldi	r24, 0x01	; 1
     f94:	0c c0       	rjmp	.+24     	; 0xfae <adc_disable_clock+0x34>
     f96:	80 34       	cpi	r24, 0x40	; 64
     f98:	92 40       	sbci	r25, 0x02	; 2
     f9a:	59 f4       	brne	.+22     	; 0xfb2 <adc_disable_clock+0x38>
     f9c:	80 91 a4 24 	lds	r24, 0x24A4
     fa0:	81 50       	subi	r24, 0x01	; 1
     fa2:	80 93 a4 24 	sts	0x24A4, r24
     fa6:	81 11       	cpse	r24, r1
     fa8:	04 c0       	rjmp	.+8      	; 0xfb2 <adc_disable_clock+0x38>
     faa:	62 e0       	ldi	r22, 0x02	; 2
     fac:	82 e0       	ldi	r24, 0x02	; 2
     fae:	0c 94 9c 0e 	jmp	0x1d38	; 0x1d38 <sysclk_disable_module>
     fb2:	08 95       	ret

00000fb4 <adc_enable>:
     fb4:	1f 93       	push	r17
     fb6:	cf 93       	push	r28
     fb8:	df 93       	push	r29
     fba:	ec 01       	movw	r28, r24
     fbc:	1f b7       	in	r17, 0x3f	; 63
     fbe:	f8 94       	cli
     fc0:	0e 94 9e 07 	call	0xf3c	; 0xf3c <adc_enable_clock>
     fc4:	88 81       	ld	r24, Y
     fc6:	81 60       	ori	r24, 0x01	; 1
     fc8:	88 83       	st	Y, r24
     fca:	1f bf       	out	0x3f, r17	; 63
     fcc:	9f b7       	in	r25, 0x3f	; 63
     fce:	f8 94       	cli
     fd0:	ec ea       	ldi	r30, 0xAC	; 172
     fd2:	f6 e2       	ldi	r31, 0x26	; 38
     fd4:	81 81       	ldd	r24, Z+1	; 0x01
     fd6:	8f 5f       	subi	r24, 0xFF	; 255
     fd8:	81 83       	std	Z+1, r24	; 0x01
     fda:	9f bf       	out	0x3f, r25	; 63
     fdc:	df 91       	pop	r29
     fde:	cf 91       	pop	r28
     fe0:	1f 91       	pop	r17
     fe2:	08 95       	ret

00000fe4 <adc_disable>:
     fe4:	cf 93       	push	r28
     fe6:	cf b7       	in	r28, 0x3f	; 63
     fe8:	f8 94       	cli
     fea:	fc 01       	movw	r30, r24
     fec:	20 81       	ld	r18, Z
     fee:	2e 7f       	andi	r18, 0xFE	; 254
     ff0:	20 83       	st	Z, r18
     ff2:	0e 94 bd 07 	call	0xf7a	; 0xf7a <adc_disable_clock>
     ff6:	cf bf       	out	0x3f, r28	; 63
     ff8:	9f b7       	in	r25, 0x3f	; 63
     ffa:	f8 94       	cli
     ffc:	ec ea       	ldi	r30, 0xAC	; 172
     ffe:	f6 e2       	ldi	r31, 0x26	; 38
    1000:	81 81       	ldd	r24, Z+1	; 0x01
    1002:	81 50       	subi	r24, 0x01	; 1
    1004:	81 83       	std	Z+1, r24	; 0x01
    1006:	9f bf       	out	0x3f, r25	; 63
    1008:	cf 91       	pop	r28
    100a:	08 95       	ret

0000100c <adc_is_enabled>:
    100c:	81 15       	cp	r24, r1
    100e:	22 e0       	ldi	r18, 0x02	; 2
    1010:	92 07       	cpc	r25, r18
    1012:	21 f4       	brne	.+8      	; 0x101c <adc_is_enabled+0x10>
    1014:	81 e0       	ldi	r24, 0x01	; 1
    1016:	90 91 a5 24 	lds	r25, 0x24A5
    101a:	06 c0       	rjmp	.+12     	; 0x1028 <adc_is_enabled+0x1c>
    101c:	80 34       	cpi	r24, 0x40	; 64
    101e:	92 40       	sbci	r25, 0x02	; 2
    1020:	29 f4       	brne	.+10     	; 0x102c <adc_is_enabled+0x20>
    1022:	81 e0       	ldi	r24, 0x01	; 1
    1024:	90 91 a4 24 	lds	r25, 0x24A4
    1028:	91 11       	cpse	r25, r1
    102a:	01 c0       	rjmp	.+2      	; 0x102e <adc_is_enabled+0x22>
    102c:	80 e0       	ldi	r24, 0x00	; 0
    102e:	08 95       	ret

00001030 <ioport_configure_pin>:
    1030:	ab 01       	movw	r20, r22
    1032:	98 2f       	mov	r25, r24
    1034:	96 95       	lsr	r25
    1036:	96 95       	lsr	r25
    1038:	96 95       	lsr	r25
    103a:	87 70       	andi	r24, 0x07	; 7
    103c:	21 e0       	ldi	r18, 0x01	; 1
    103e:	30 e0       	ldi	r19, 0x00	; 0
    1040:	b9 01       	movw	r22, r18
    1042:	01 c0       	rjmp	.+2      	; 0x1046 <ioport_configure_pin+0x16>
    1044:	66 0f       	add	r22, r22
    1046:	8a 95       	dec	r24
    1048:	ea f7       	brpl	.-6      	; 0x1044 <ioport_configure_pin+0x14>
    104a:	20 e2       	ldi	r18, 0x20	; 32
    104c:	92 9f       	mul	r25, r18
    104e:	c0 01       	movw	r24, r0
    1050:	11 24       	eor	r1, r1
    1052:	9a 5f       	subi	r25, 0xFA	; 250
    1054:	0c 94 08 09 	jmp	0x1210	; 0x1210 <ioport_configure_port_pin>

00001058 <board_init>:
    1058:	60 e0       	ldi	r22, 0x00	; 0
    105a:	78 e1       	ldi	r23, 0x18	; 24
    105c:	8e e2       	ldi	r24, 0x2E	; 46
    105e:	0e 94 18 08 	call	0x1030	; 0x1030 <ioport_configure_pin>
    1062:	60 e0       	ldi	r22, 0x00	; 0
    1064:	78 e1       	ldi	r23, 0x18	; 24
    1066:	8d e2       	ldi	r24, 0x2D	; 45
    1068:	0e 94 18 08 	call	0x1030	; 0x1030 <ioport_configure_pin>
    106c:	60 e0       	ldi	r22, 0x00	; 0
    106e:	78 e1       	ldi	r23, 0x18	; 24
    1070:	8c e2       	ldi	r24, 0x2C	; 44
    1072:	0e 94 18 08 	call	0x1030	; 0x1030 <ioport_configure_pin>
    1076:	63 e0       	ldi	r22, 0x03	; 3
    1078:	70 e0       	ldi	r23, 0x00	; 0
    107a:	89 e0       	ldi	r24, 0x09	; 9
    107c:	0e 94 18 08 	call	0x1030	; 0x1030 <ioport_configure_pin>
    1080:	63 e0       	ldi	r22, 0x03	; 3
    1082:	70 e0       	ldi	r23, 0x00	; 0
    1084:	88 e0       	ldi	r24, 0x08	; 8
    1086:	0e 94 18 08 	call	0x1030	; 0x1030 <ioport_configure_pin>
    108a:	63 e0       	ldi	r22, 0x03	; 3
    108c:	70 e0       	ldi	r23, 0x00	; 0
    108e:	8a e0       	ldi	r24, 0x0A	; 10
    1090:	0e 94 18 08 	call	0x1030	; 0x1030 <ioport_configure_pin>
    1094:	63 e0       	ldi	r22, 0x03	; 3
    1096:	70 e0       	ldi	r23, 0x00	; 0
    1098:	85 e1       	ldi	r24, 0x15	; 21
    109a:	0e 94 18 08 	call	0x1030	; 0x1030 <ioport_configure_pin>
    109e:	63 e0       	ldi	r22, 0x03	; 3
    10a0:	70 e0       	ldi	r23, 0x00	; 0
    10a2:	87 e1       	ldi	r24, 0x17	; 23
    10a4:	0e 94 18 08 	call	0x1030	; 0x1030 <ioport_configure_pin>
    10a8:	63 e0       	ldi	r22, 0x03	; 3
    10aa:	70 e0       	ldi	r23, 0x00	; 0
    10ac:	84 e1       	ldi	r24, 0x14	; 20
    10ae:	0e 94 18 08 	call	0x1030	; 0x1030 <ioport_configure_pin>
    10b2:	61 e0       	ldi	r22, 0x01	; 1
    10b4:	70 e0       	ldi	r23, 0x00	; 0
    10b6:	85 e2       	ldi	r24, 0x25	; 37
    10b8:	0e 94 18 08 	call	0x1030	; 0x1030 <ioport_configure_pin>
    10bc:	63 e0       	ldi	r22, 0x03	; 3
    10be:	70 e0       	ldi	r23, 0x00	; 0
    10c0:	83 e2       	ldi	r24, 0x23	; 35
    10c2:	0e 94 18 08 	call	0x1030	; 0x1030 <ioport_configure_pin>
    10c6:	63 e0       	ldi	r22, 0x03	; 3
    10c8:	70 e0       	ldi	r23, 0x00	; 0
    10ca:	85 e2       	ldi	r24, 0x25	; 37
    10cc:	0e 94 18 08 	call	0x1030	; 0x1030 <ioport_configure_pin>
    10d0:	63 e0       	ldi	r22, 0x03	; 3
    10d2:	70 e0       	ldi	r23, 0x00	; 0
    10d4:	86 e2       	ldi	r24, 0x26	; 38
    10d6:	0e 94 18 08 	call	0x1030	; 0x1030 <ioport_configure_pin>
    10da:	63 e0       	ldi	r22, 0x03	; 3
    10dc:	70 e0       	ldi	r23, 0x00	; 0
    10de:	87 e2       	ldi	r24, 0x27	; 39
    10e0:	0c 94 18 08 	jmp	0x1030	; 0x1030 <ioport_configure_pin>

000010e4 <spi_master_init>:
    10e4:	cf 93       	push	r28
    10e6:	df 93       	push	r29
    10e8:	ec 01       	movw	r28, r24
    10ea:	c0 3c       	cpi	r28, 0xC0	; 192
    10ec:	88 e0       	ldi	r24, 0x08	; 8
    10ee:	d8 07       	cpc	r29, r24
    10f0:	19 f4       	brne	.+6      	; 0x10f8 <spi_master_init+0x14>
    10f2:	68 e0       	ldi	r22, 0x08	; 8
    10f4:	83 e0       	ldi	r24, 0x03	; 3
    10f6:	0d c0       	rjmp	.+26     	; 0x1112 <spi_master_init+0x2e>
    10f8:	c0 3c       	cpi	r28, 0xC0	; 192
    10fa:	89 e0       	ldi	r24, 0x09	; 9
    10fc:	d8 07       	cpc	r29, r24
    10fe:	19 f4       	brne	.+6      	; 0x1106 <spi_master_init+0x22>
    1100:	68 e0       	ldi	r22, 0x08	; 8
    1102:	84 e0       	ldi	r24, 0x04	; 4
    1104:	06 c0       	rjmp	.+12     	; 0x1112 <spi_master_init+0x2e>
    1106:	c0 3c       	cpi	r28, 0xC0	; 192
    1108:	8a e0       	ldi	r24, 0x0A	; 10
    110a:	d8 07       	cpc	r29, r24
    110c:	21 f4       	brne	.+8      	; 0x1116 <spi_master_init+0x32>
    110e:	68 e0       	ldi	r22, 0x08	; 8
    1110:	85 e0       	ldi	r24, 0x05	; 5
    1112:	0e 94 90 0e 	call	0x1d20	; 0x1d20 <sysclk_enable_module>
    1116:	88 81       	ld	r24, Y
    1118:	80 61       	ori	r24, 0x10	; 16
    111a:	88 83       	st	Y, r24
    111c:	df 91       	pop	r29
    111e:	cf 91       	pop	r28
    1120:	08 95       	ret

00001122 <spi_master_setup_device>:
    1122:	ef 92       	push	r14
    1124:	ff 92       	push	r15
    1126:	0f 93       	push	r16
    1128:	1f 93       	push	r17
    112a:	cf 93       	push	r28
    112c:	7c 01       	movw	r14, r24
    112e:	c4 2f       	mov	r28, r20
    1130:	b9 01       	movw	r22, r18
    1132:	a8 01       	movw	r20, r16
    1134:	00 e8       	ldi	r16, 0x80	; 128
    1136:	14 e8       	ldi	r17, 0x84	; 132
    1138:	2e e1       	ldi	r18, 0x1E	; 30
    113a:	30 e0       	ldi	r19, 0x00	; 0
    113c:	0e 94 1f 01 	call	0x23e	; 0x23e <spi_xmega_set_baud_div>
    1140:	87 fd       	sbrc	r24, 7
    1142:	0b c0       	rjmp	.+22     	; 0x115a <spi_master_setup_device+0x38>
    1144:	f7 01       	movw	r30, r14
    1146:	90 81       	ld	r25, Z
    1148:	f4 e0       	ldi	r31, 0x04	; 4
    114a:	cf 9f       	mul	r28, r31
    114c:	a0 01       	movw	r20, r0
    114e:	11 24       	eor	r1, r1
    1150:	4c 70       	andi	r20, 0x0C	; 12
    1152:	93 7f       	andi	r25, 0xF3	; 243
    1154:	49 2b       	or	r20, r25
    1156:	f7 01       	movw	r30, r14
    1158:	40 83       	st	Z, r20
    115a:	cf 91       	pop	r28
    115c:	1f 91       	pop	r17
    115e:	0f 91       	pop	r16
    1160:	ff 90       	pop	r15
    1162:	ef 90       	pop	r14
    1164:	08 95       	ret

00001166 <spi_write_packet>:
    1166:	fb 01       	movw	r30, r22
    1168:	46 0f       	add	r20, r22
    116a:	57 1f       	adc	r21, r23
    116c:	e4 17       	cp	r30, r20
    116e:	f5 07       	cpc	r31, r21
    1170:	51 f0       	breq	.+20     	; 0x1186 <spi_write_packet+0x20>
    1172:	21 91       	ld	r18, Z+
    1174:	dc 01       	movw	r26, r24
    1176:	13 96       	adiw	r26, 0x03	; 3
    1178:	2c 93       	st	X, r18
    117a:	dc 01       	movw	r26, r24
    117c:	12 96       	adiw	r26, 0x02	; 2
    117e:	2c 91       	ld	r18, X
    1180:	27 ff       	sbrs	r18, 7
    1182:	fb cf       	rjmp	.-10     	; 0x117a <spi_write_packet+0x14>
    1184:	f3 cf       	rjmp	.-26     	; 0x116c <spi_write_packet+0x6>
    1186:	80 e0       	ldi	r24, 0x00	; 0
    1188:	08 95       	ret

0000118a <spi_read_packet>:
    118a:	dc 01       	movw	r26, r24
    118c:	fb 01       	movw	r30, r22
    118e:	46 0f       	add	r20, r22
    1190:	57 1f       	adc	r21, r23
    1192:	8f ef       	ldi	r24, 0xFF	; 255
    1194:	e4 17       	cp	r30, r20
    1196:	f5 07       	cpc	r31, r21
    1198:	69 f0       	breq	.+26     	; 0x11b4 <spi_read_packet+0x2a>
    119a:	13 96       	adiw	r26, 0x03	; 3
    119c:	8c 93       	st	X, r24
    119e:	13 97       	sbiw	r26, 0x03	; 3
    11a0:	12 96       	adiw	r26, 0x02	; 2
    11a2:	9c 91       	ld	r25, X
    11a4:	12 97       	sbiw	r26, 0x02	; 2
    11a6:	97 ff       	sbrs	r25, 7
    11a8:	fb cf       	rjmp	.-10     	; 0x11a0 <spi_read_packet+0x16>
    11aa:	13 96       	adiw	r26, 0x03	; 3
    11ac:	9c 91       	ld	r25, X
    11ae:	13 97       	sbiw	r26, 0x03	; 3
    11b0:	91 93       	st	Z+, r25
    11b2:	f0 cf       	rjmp	.-32     	; 0x1194 <spi_read_packet+0xa>
    11b4:	80 e0       	ldi	r24, 0x00	; 0
    11b6:	08 95       	ret

000011b8 <spi_select_device>:
    11b8:	fb 01       	movw	r30, r22
    11ba:	80 81       	ld	r24, Z
    11bc:	e8 2f       	mov	r30, r24
    11be:	e6 95       	lsr	r30
    11c0:	e6 95       	lsr	r30
    11c2:	e6 95       	lsr	r30
    11c4:	40 e2       	ldi	r20, 0x20	; 32
    11c6:	e4 9f       	mul	r30, r20
    11c8:	f0 01       	movw	r30, r0
    11ca:	11 24       	eor	r1, r1
    11cc:	fa 5f       	subi	r31, 0xFA	; 250
    11ce:	87 70       	andi	r24, 0x07	; 7
    11d0:	21 e0       	ldi	r18, 0x01	; 1
    11d2:	30 e0       	ldi	r19, 0x00	; 0
    11d4:	a9 01       	movw	r20, r18
    11d6:	02 c0       	rjmp	.+4      	; 0x11dc <spi_select_device+0x24>
    11d8:	44 0f       	add	r20, r20
    11da:	55 1f       	adc	r21, r21
    11dc:	8a 95       	dec	r24
    11de:	e2 f7       	brpl	.-8      	; 0x11d8 <spi_select_device+0x20>
    11e0:	46 83       	std	Z+6, r20	; 0x06
    11e2:	08 95       	ret

000011e4 <spi_deselect_device>:
    11e4:	fb 01       	movw	r30, r22
    11e6:	80 81       	ld	r24, Z
    11e8:	e8 2f       	mov	r30, r24
    11ea:	e6 95       	lsr	r30
    11ec:	e6 95       	lsr	r30
    11ee:	e6 95       	lsr	r30
    11f0:	40 e2       	ldi	r20, 0x20	; 32
    11f2:	e4 9f       	mul	r30, r20
    11f4:	f0 01       	movw	r30, r0
    11f6:	11 24       	eor	r1, r1
    11f8:	fa 5f       	subi	r31, 0xFA	; 250
    11fa:	87 70       	andi	r24, 0x07	; 7
    11fc:	21 e0       	ldi	r18, 0x01	; 1
    11fe:	30 e0       	ldi	r19, 0x00	; 0
    1200:	a9 01       	movw	r20, r18
    1202:	02 c0       	rjmp	.+4      	; 0x1208 <spi_deselect_device+0x24>
    1204:	44 0f       	add	r20, r20
    1206:	55 1f       	adc	r21, r21
    1208:	8a 95       	dec	r24
    120a:	e2 f7       	brpl	.-8      	; 0x1204 <spi_deselect_device+0x20>
    120c:	45 83       	std	Z+5, r20	; 0x05
    120e:	08 95       	ret

00001210 <ioport_configure_port_pin>:
    1210:	fc 01       	movw	r30, r24
    1212:	80 e0       	ldi	r24, 0x00	; 0
    1214:	90 e0       	ldi	r25, 0x00	; 0
    1216:	26 2f       	mov	r18, r22
    1218:	30 e0       	ldi	r19, 0x00	; 0
    121a:	d9 01       	movw	r26, r18
    121c:	08 2e       	mov	r0, r24
    121e:	02 c0       	rjmp	.+4      	; 0x1224 <ioport_configure_port_pin+0x14>
    1220:	b5 95       	asr	r27
    1222:	a7 95       	ror	r26
    1224:	0a 94       	dec	r0
    1226:	e2 f7       	brpl	.-8      	; 0x1220 <ioport_configure_port_pin+0x10>
    1228:	a0 ff       	sbrs	r26, 0
    122a:	05 c0       	rjmp	.+10     	; 0x1236 <ioport_configure_port_pin+0x26>
    122c:	df 01       	movw	r26, r30
    122e:	a8 0f       	add	r26, r24
    1230:	b9 1f       	adc	r27, r25
    1232:	50 96       	adiw	r26, 0x10	; 16
    1234:	5c 93       	st	X, r21
    1236:	01 96       	adiw	r24, 0x01	; 1
    1238:	88 30       	cpi	r24, 0x08	; 8
    123a:	91 05       	cpc	r25, r1
    123c:	71 f7       	brne	.-36     	; 0x121a <ioport_configure_port_pin+0xa>
    123e:	40 ff       	sbrs	r20, 0
    1240:	07 c0       	rjmp	.+14     	; 0x1250 <ioport_configure_port_pin+0x40>
    1242:	41 ff       	sbrs	r20, 1
    1244:	02 c0       	rjmp	.+4      	; 0x124a <ioport_configure_port_pin+0x3a>
    1246:	65 83       	std	Z+5, r22	; 0x05
    1248:	01 c0       	rjmp	.+2      	; 0x124c <ioport_configure_port_pin+0x3c>
    124a:	66 83       	std	Z+6, r22	; 0x06
    124c:	61 83       	std	Z+1, r22	; 0x01
    124e:	08 95       	ret
    1250:	62 83       	std	Z+2, r22	; 0x02
    1252:	08 95       	ret

00001254 <gfx_mono_set_framebuffer>:
    1254:	80 93 a6 24 	sts	0x24A6, r24
    1258:	90 93 a7 24 	sts	0x24A7, r25
    125c:	08 95       	ret

0000125e <gfx_mono_framebuffer_put_page>:
    125e:	e4 2f       	mov	r30, r20
    1260:	f0 e0       	ldi	r31, 0x00	; 0
    1262:	af 01       	movw	r20, r30
    1264:	30 e8       	ldi	r19, 0x80	; 128
    1266:	63 9f       	mul	r22, r19
    1268:	40 0d       	add	r20, r0
    126a:	51 1d       	adc	r21, r1
    126c:	11 24       	eor	r1, r1
    126e:	e0 91 a6 24 	lds	r30, 0x24A6
    1272:	f0 91 a7 24 	lds	r31, 0x24A7
    1276:	e4 0f       	add	r30, r20
    1278:	f5 1f       	adc	r31, r21
    127a:	2e 0f       	add	r18, r30
    127c:	dc 01       	movw	r26, r24
    127e:	3d 91       	ld	r19, X+
    1280:	cd 01       	movw	r24, r26
    1282:	31 93       	st	Z+, r19
    1284:	2e 13       	cpse	r18, r30
    1286:	fa cf       	rjmp	.-12     	; 0x127c <gfx_mono_framebuffer_put_page+0x1e>
    1288:	08 95       	ret

0000128a <gfx_mono_framebuffer_get_page>:
    128a:	e4 2f       	mov	r30, r20
    128c:	f0 e0       	ldi	r31, 0x00	; 0
    128e:	af 01       	movw	r20, r30
    1290:	30 e8       	ldi	r19, 0x80	; 128
    1292:	63 9f       	mul	r22, r19
    1294:	40 0d       	add	r20, r0
    1296:	51 1d       	adc	r21, r1
    1298:	11 24       	eor	r1, r1
    129a:	e0 91 a6 24 	lds	r30, 0x24A6
    129e:	f0 91 a7 24 	lds	r31, 0x24A7
    12a2:	e4 0f       	add	r30, r20
    12a4:	f5 1f       	adc	r31, r21
    12a6:	dc 01       	movw	r26, r24
    12a8:	82 0f       	add	r24, r18
    12aa:	91 91       	ld	r25, Z+
    12ac:	9d 93       	st	X+, r25
    12ae:	8a 13       	cpse	r24, r26
    12b0:	fc cf       	rjmp	.-8      	; 0x12aa <gfx_mono_framebuffer_get_page+0x20>
    12b2:	08 95       	ret

000012b4 <gfx_mono_framebuffer_put_byte>:
    12b4:	20 91 a6 24 	lds	r18, 0x24A6
    12b8:	30 91 a7 24 	lds	r19, 0x24A7
    12bc:	90 e8       	ldi	r25, 0x80	; 128
    12be:	89 9f       	mul	r24, r25
    12c0:	20 0d       	add	r18, r0
    12c2:	31 1d       	adc	r19, r1
    12c4:	11 24       	eor	r1, r1
    12c6:	f9 01       	movw	r30, r18
    12c8:	e6 0f       	add	r30, r22
    12ca:	f1 1d       	adc	r31, r1
    12cc:	40 83       	st	Z, r20
    12ce:	08 95       	ret

000012d0 <gfx_mono_framebuffer_get_byte>:
    12d0:	20 91 a6 24 	lds	r18, 0x24A6
    12d4:	30 91 a7 24 	lds	r19, 0x24A7
    12d8:	90 e8       	ldi	r25, 0x80	; 128
    12da:	89 9f       	mul	r24, r25
    12dc:	20 0d       	add	r18, r0
    12de:	31 1d       	adc	r19, r1
    12e0:	11 24       	eor	r1, r1
    12e2:	f9 01       	movw	r30, r18
    12e4:	e6 0f       	add	r30, r22
    12e6:	f1 1d       	adc	r31, r1
    12e8:	80 81       	ld	r24, Z
    12ea:	08 95       	ret

000012ec <gfx_mono_framebuffer_draw_pixel>:
    12ec:	ff 92       	push	r15
    12ee:	0f 93       	push	r16
    12f0:	1f 93       	push	r17
    12f2:	cf 93       	push	r28
    12f4:	df 93       	push	r29
    12f6:	87 fd       	sbrc	r24, 7
    12f8:	2e c0       	rjmp	.+92     	; 0x1356 <gfx_mono_framebuffer_draw_pixel+0x6a>
    12fa:	60 32       	cpi	r22, 0x20	; 32
    12fc:	60 f5       	brcc	.+88     	; 0x1356 <gfx_mono_framebuffer_draw_pixel+0x6a>
    12fe:	04 2f       	mov	r16, r20
    1300:	18 2f       	mov	r17, r24
    1302:	f6 2e       	mov	r15, r22
    1304:	f6 94       	lsr	r15
    1306:	f6 94       	lsr	r15
    1308:	f6 94       	lsr	r15
    130a:	2f 2d       	mov	r18, r15
    130c:	38 ef       	ldi	r19, 0xF8	; 248
    130e:	32 03       	mulsu	r19, r18
    1310:	c0 01       	movw	r24, r0
    1312:	11 24       	eor	r1, r1
    1314:	86 0f       	add	r24, r22
    1316:	91 1d       	adc	r25, r1
    1318:	c1 e0       	ldi	r28, 0x01	; 1
    131a:	d0 e0       	ldi	r29, 0x00	; 0
    131c:	01 c0       	rjmp	.+2      	; 0x1320 <gfx_mono_framebuffer_draw_pixel+0x34>
    131e:	cc 0f       	add	r28, r28
    1320:	8a 95       	dec	r24
    1322:	ea f7       	brpl	.-6      	; 0x131e <gfx_mono_framebuffer_draw_pixel+0x32>
    1324:	61 2f       	mov	r22, r17
    1326:	8f 2d       	mov	r24, r15
    1328:	0e 94 68 09 	call	0x12d0	; 0x12d0 <gfx_mono_framebuffer_get_byte>
    132c:	48 2f       	mov	r20, r24
    132e:	01 30       	cpi	r16, 0x01	; 1
    1330:	29 f0       	breq	.+10     	; 0x133c <gfx_mono_framebuffer_draw_pixel+0x50>
    1332:	30 f0       	brcs	.+12     	; 0x1340 <gfx_mono_framebuffer_draw_pixel+0x54>
    1334:	02 30       	cpi	r16, 0x02	; 2
    1336:	31 f4       	brne	.+12     	; 0x1344 <gfx_mono_framebuffer_draw_pixel+0x58>
    1338:	4c 27       	eor	r20, r28
    133a:	04 c0       	rjmp	.+8      	; 0x1344 <gfx_mono_framebuffer_draw_pixel+0x58>
    133c:	4c 2b       	or	r20, r28
    133e:	02 c0       	rjmp	.+4      	; 0x1344 <gfx_mono_framebuffer_draw_pixel+0x58>
    1340:	c0 95       	com	r28
    1342:	4c 23       	and	r20, r28
    1344:	61 2f       	mov	r22, r17
    1346:	8f 2d       	mov	r24, r15
    1348:	df 91       	pop	r29
    134a:	cf 91       	pop	r28
    134c:	1f 91       	pop	r17
    134e:	0f 91       	pop	r16
    1350:	ff 90       	pop	r15
    1352:	0c 94 5a 09 	jmp	0x12b4	; 0x12b4 <gfx_mono_framebuffer_put_byte>
    1356:	df 91       	pop	r29
    1358:	cf 91       	pop	r28
    135a:	1f 91       	pop	r17
    135c:	0f 91       	pop	r16
    135e:	ff 90       	pop	r15
    1360:	08 95       	ret

00001362 <gfx_mono_framebuffer_get_pixel>:
    1362:	1f 93       	push	r17
    1364:	cf 93       	push	r28
    1366:	87 fd       	sbrc	r24, 7
    1368:	1a c0       	rjmp	.+52     	; 0x139e <gfx_mono_framebuffer_get_pixel+0x3c>
    136a:	60 32       	cpi	r22, 0x20	; 32
    136c:	c0 f4       	brcc	.+48     	; 0x139e <gfx_mono_framebuffer_get_pixel+0x3c>
    136e:	c6 2f       	mov	r28, r22
    1370:	68 2f       	mov	r22, r24
    1372:	1c 2f       	mov	r17, r28
    1374:	16 95       	lsr	r17
    1376:	16 95       	lsr	r17
    1378:	16 95       	lsr	r17
    137a:	81 2f       	mov	r24, r17
    137c:	0e 94 68 09 	call	0x12d0	; 0x12d0 <gfx_mono_framebuffer_get_byte>
    1380:	28 ef       	ldi	r18, 0xF8	; 248
    1382:	21 03       	mulsu	r18, r17
    1384:	a0 01       	movw	r20, r0
    1386:	11 24       	eor	r1, r1
    1388:	4c 0f       	add	r20, r28
    138a:	51 1d       	adc	r21, r1
    138c:	21 e0       	ldi	r18, 0x01	; 1
    138e:	30 e0       	ldi	r19, 0x00	; 0
    1390:	04 2e       	mov	r0, r20
    1392:	01 c0       	rjmp	.+2      	; 0x1396 <gfx_mono_framebuffer_get_pixel+0x34>
    1394:	22 0f       	add	r18, r18
    1396:	0a 94       	dec	r0
    1398:	ea f7       	brpl	.-6      	; 0x1394 <gfx_mono_framebuffer_get_pixel+0x32>
    139a:	82 23       	and	r24, r18
    139c:	01 c0       	rjmp	.+2      	; 0x13a0 <gfx_mono_framebuffer_get_pixel+0x3e>
    139e:	80 e0       	ldi	r24, 0x00	; 0
    13a0:	cf 91       	pop	r28
    13a2:	1f 91       	pop	r17
    13a4:	08 95       	ret

000013a6 <gfx_mono_framebuffer_mask_byte>:
    13a6:	0f 93       	push	r16
    13a8:	1f 93       	push	r17
    13aa:	cf 93       	push	r28
    13ac:	df 93       	push	r29
    13ae:	00 d0       	rcall	.+0      	; 0x13b0 <gfx_mono_framebuffer_mask_byte+0xa>
    13b0:	cd b7       	in	r28, 0x3d	; 61
    13b2:	de b7       	in	r29, 0x3e	; 62
    13b4:	18 2f       	mov	r17, r24
    13b6:	06 2f       	mov	r16, r22
    13b8:	2a 83       	std	Y+2, r18	; 0x02
    13ba:	49 83       	std	Y+1, r20	; 0x01
    13bc:	0e 94 58 0e 	call	0x1cb0	; 0x1cb0 <gfx_mono_ssd1306_get_byte>
    13c0:	2a 81       	ldd	r18, Y+2	; 0x02
    13c2:	49 81       	ldd	r20, Y+1	; 0x01
    13c4:	21 30       	cpi	r18, 0x01	; 1
    13c6:	29 f0       	breq	.+10     	; 0x13d2 <gfx_mono_framebuffer_mask_byte+0x2c>
    13c8:	30 f0       	brcs	.+12     	; 0x13d6 <gfx_mono_framebuffer_mask_byte+0x30>
    13ca:	22 30       	cpi	r18, 0x02	; 2
    13cc:	31 f4       	brne	.+12     	; 0x13da <gfx_mono_framebuffer_mask_byte+0x34>
    13ce:	84 27       	eor	r24, r20
    13d0:	04 c0       	rjmp	.+8      	; 0x13da <gfx_mono_framebuffer_mask_byte+0x34>
    13d2:	84 2b       	or	r24, r20
    13d4:	02 c0       	rjmp	.+4      	; 0x13da <gfx_mono_framebuffer_mask_byte+0x34>
    13d6:	40 95       	com	r20
    13d8:	84 23       	and	r24, r20
    13da:	20 e0       	ldi	r18, 0x00	; 0
    13dc:	48 2f       	mov	r20, r24
    13de:	60 2f       	mov	r22, r16
    13e0:	81 2f       	mov	r24, r17
    13e2:	0f 90       	pop	r0
    13e4:	0f 90       	pop	r0
    13e6:	df 91       	pop	r29
    13e8:	cf 91       	pop	r28
    13ea:	1f 91       	pop	r17
    13ec:	0f 91       	pop	r16
    13ee:	0c 94 df 0d 	jmp	0x1bbe	; 0x1bbe <gfx_mono_ssd1306_put_byte>

000013f2 <gfx_mono_generic_draw_horizontal_line>:
    13f2:	ff 92       	push	r15
    13f4:	0f 93       	push	r16
    13f6:	1f 93       	push	r17
    13f8:	cf 93       	push	r28
    13fa:	df 93       	push	r29
    13fc:	08 2f       	mov	r16, r24
    13fe:	84 2f       	mov	r24, r20
    1400:	90 e0       	ldi	r25, 0x00	; 0
    1402:	80 0f       	add	r24, r16
    1404:	91 1d       	adc	r25, r1
    1406:	81 38       	cpi	r24, 0x81	; 129
    1408:	91 05       	cpc	r25, r1
    140a:	14 f0       	brlt	.+4      	; 0x1410 <gfx_mono_generic_draw_horizontal_line+0x1e>
    140c:	40 e8       	ldi	r20, 0x80	; 128
    140e:	40 1b       	sub	r20, r16
    1410:	44 23       	and	r20, r20
    1412:	09 f4       	brne	.+2      	; 0x1416 <gfx_mono_generic_draw_horizontal_line+0x24>
    1414:	51 c0       	rjmp	.+162    	; 0x14b8 <gfx_mono_generic_draw_horizontal_line+0xc6>
    1416:	16 2f       	mov	r17, r22
    1418:	16 95       	lsr	r17
    141a:	16 95       	lsr	r17
    141c:	16 95       	lsr	r17
    141e:	38 ef       	ldi	r19, 0xF8	; 248
    1420:	31 03       	mulsu	r19, r17
    1422:	c0 01       	movw	r24, r0
    1424:	11 24       	eor	r1, r1
    1426:	86 0f       	add	r24, r22
    1428:	91 1d       	adc	r25, r1
    142a:	61 e0       	ldi	r22, 0x01	; 1
    142c:	70 e0       	ldi	r23, 0x00	; 0
    142e:	08 2e       	mov	r0, r24
    1430:	01 c0       	rjmp	.+2      	; 0x1434 <gfx_mono_generic_draw_horizontal_line+0x42>
    1432:	66 0f       	add	r22, r22
    1434:	0a 94       	dec	r0
    1436:	ea f7       	brpl	.-6      	; 0x1432 <gfx_mono_generic_draw_horizontal_line+0x40>
    1438:	f6 2e       	mov	r15, r22
    143a:	21 30       	cpi	r18, 0x01	; 1
    143c:	31 f0       	breq	.+12     	; 0x144a <gfx_mono_generic_draw_horizontal_line+0x58>
    143e:	40 f0       	brcs	.+16     	; 0x1450 <gfx_mono_generic_draw_horizontal_line+0x5e>
    1440:	22 30       	cpi	r18, 0x02	; 2
    1442:	d1 f5       	brne	.+116    	; 0x14b8 <gfx_mono_generic_draw_horizontal_line+0xc6>
    1444:	cf ef       	ldi	r28, 0xFF	; 255
    1446:	c4 0f       	add	r28, r20
    1448:	28 c0       	rjmp	.+80     	; 0x149a <gfx_mono_generic_draw_horizontal_line+0xa8>
    144a:	cf ef       	ldi	r28, 0xFF	; 255
    144c:	c4 0f       	add	r28, r20
    144e:	05 c0       	rjmp	.+10     	; 0x145a <gfx_mono_generic_draw_horizontal_line+0x68>
    1450:	cf ef       	ldi	r28, 0xFF	; 255
    1452:	c4 0f       	add	r28, r20
    1454:	d6 2f       	mov	r29, r22
    1456:	d0 95       	com	r29
    1458:	10 c0       	rjmp	.+32     	; 0x147a <gfx_mono_generic_draw_horizontal_line+0x88>
    145a:	dc 2f       	mov	r29, r28
    145c:	d0 0f       	add	r29, r16
    145e:	6d 2f       	mov	r22, r29
    1460:	81 2f       	mov	r24, r17
    1462:	0e 94 58 0e 	call	0x1cb0	; 0x1cb0 <gfx_mono_ssd1306_get_byte>
    1466:	48 2f       	mov	r20, r24
    1468:	4f 29       	or	r20, r15
    146a:	20 e0       	ldi	r18, 0x00	; 0
    146c:	6d 2f       	mov	r22, r29
    146e:	81 2f       	mov	r24, r17
    1470:	0e 94 df 0d 	call	0x1bbe	; 0x1bbe <gfx_mono_ssd1306_put_byte>
    1474:	c1 50       	subi	r28, 0x01	; 1
    1476:	88 f7       	brcc	.-30     	; 0x145a <gfx_mono_generic_draw_horizontal_line+0x68>
    1478:	1f c0       	rjmp	.+62     	; 0x14b8 <gfx_mono_generic_draw_horizontal_line+0xc6>
    147a:	fc 2e       	mov	r15, r28
    147c:	f0 0e       	add	r15, r16
    147e:	6f 2d       	mov	r22, r15
    1480:	81 2f       	mov	r24, r17
    1482:	0e 94 58 0e 	call	0x1cb0	; 0x1cb0 <gfx_mono_ssd1306_get_byte>
    1486:	48 2f       	mov	r20, r24
    1488:	4d 23       	and	r20, r29
    148a:	20 e0       	ldi	r18, 0x00	; 0
    148c:	6f 2d       	mov	r22, r15
    148e:	81 2f       	mov	r24, r17
    1490:	0e 94 df 0d 	call	0x1bbe	; 0x1bbe <gfx_mono_ssd1306_put_byte>
    1494:	c1 50       	subi	r28, 0x01	; 1
    1496:	88 f7       	brcc	.-30     	; 0x147a <gfx_mono_generic_draw_horizontal_line+0x88>
    1498:	0f c0       	rjmp	.+30     	; 0x14b8 <gfx_mono_generic_draw_horizontal_line+0xc6>
    149a:	dc 2f       	mov	r29, r28
    149c:	d0 0f       	add	r29, r16
    149e:	6d 2f       	mov	r22, r29
    14a0:	81 2f       	mov	r24, r17
    14a2:	0e 94 58 0e 	call	0x1cb0	; 0x1cb0 <gfx_mono_ssd1306_get_byte>
    14a6:	48 2f       	mov	r20, r24
    14a8:	4f 25       	eor	r20, r15
    14aa:	20 e0       	ldi	r18, 0x00	; 0
    14ac:	6d 2f       	mov	r22, r29
    14ae:	81 2f       	mov	r24, r17
    14b0:	0e 94 df 0d 	call	0x1bbe	; 0x1bbe <gfx_mono_ssd1306_put_byte>
    14b4:	c1 50       	subi	r28, 0x01	; 1
    14b6:	88 f7       	brcc	.-30     	; 0x149a <gfx_mono_generic_draw_horizontal_line+0xa8>
    14b8:	df 91       	pop	r29
    14ba:	cf 91       	pop	r28
    14bc:	1f 91       	pop	r17
    14be:	0f 91       	pop	r16
    14c0:	ff 90       	pop	r15
    14c2:	08 95       	ret

000014c4 <gfx_mono_generic_draw_vertical_line>:
    14c4:	ef 92       	push	r14
    14c6:	ff 92       	push	r15
    14c8:	0f 93       	push	r16
    14ca:	1f 93       	push	r17
    14cc:	cf 93       	push	r28
    14ce:	df 93       	push	r29
    14d0:	94 2f       	mov	r25, r20
    14d2:	44 23       	and	r20, r20
    14d4:	09 f4       	brne	.+2      	; 0x14d8 <gfx_mono_generic_draw_vertical_line+0x14>
    14d6:	4d c0       	rjmp	.+154    	; 0x1572 <gfx_mono_generic_draw_vertical_line+0xae>
    14d8:	4f ef       	ldi	r20, 0xFF	; 255
    14da:	46 0f       	add	r20, r22
    14dc:	94 0f       	add	r25, r20
    14de:	69 13       	cpse	r22, r25
    14e0:	09 c0       	rjmp	.+18     	; 0x14f4 <gfx_mono_generic_draw_vertical_line+0x30>
    14e2:	42 2f       	mov	r20, r18
    14e4:	df 91       	pop	r29
    14e6:	cf 91       	pop	r28
    14e8:	1f 91       	pop	r17
    14ea:	0f 91       	pop	r16
    14ec:	ff 90       	pop	r15
    14ee:	ef 90       	pop	r14
    14f0:	0c 94 1c 0e 	jmp	0x1c38	; 0x1c38 <gfx_mono_ssd1306_draw_pixel>
    14f4:	9f 31       	cpi	r25, 0x1F	; 31
    14f6:	08 f0       	brcs	.+2      	; 0x14fa <gfx_mono_generic_draw_vertical_line+0x36>
    14f8:	9f e1       	ldi	r25, 0x1F	; 31
    14fa:	16 2f       	mov	r17, r22
    14fc:	16 95       	lsr	r17
    14fe:	16 95       	lsr	r17
    1500:	16 95       	lsr	r17
    1502:	09 2f       	mov	r16, r25
    1504:	06 95       	lsr	r16
    1506:	06 95       	lsr	r16
    1508:	06 95       	lsr	r16
    150a:	67 70       	andi	r22, 0x07	; 7
    150c:	ef ef       	ldi	r30, 0xFF	; 255
    150e:	f0 e0       	ldi	r31, 0x00	; 0
    1510:	af 01       	movw	r20, r30
    1512:	01 c0       	rjmp	.+2      	; 0x1516 <gfx_mono_generic_draw_vertical_line+0x52>
    1514:	44 0f       	add	r20, r20
    1516:	6a 95       	dec	r22
    1518:	ea f7       	brpl	.-6      	; 0x1514 <gfx_mono_generic_draw_vertical_line+0x50>
    151a:	97 70       	andi	r25, 0x07	; 7
    151c:	67 e0       	ldi	r22, 0x07	; 7
    151e:	70 e0       	ldi	r23, 0x00	; 0
    1520:	69 1b       	sub	r22, r25
    1522:	71 09       	sbc	r23, r1
    1524:	7f 01       	movw	r14, r30
    1526:	02 c0       	rjmp	.+4      	; 0x152c <gfx_mono_generic_draw_vertical_line+0x68>
    1528:	f5 94       	asr	r15
    152a:	e7 94       	ror	r14
    152c:	6a 95       	dec	r22
    152e:	e2 f7       	brpl	.-8      	; 0x1528 <gfx_mono_generic_draw_vertical_line+0x64>
    1530:	10 13       	cpse	r17, r16
    1532:	04 c0       	rjmp	.+8      	; 0x153c <gfx_mono_generic_draw_vertical_line+0x78>
    1534:	4e 21       	and	r20, r14
    1536:	68 2f       	mov	r22, r24
    1538:	81 2f       	mov	r24, r17
    153a:	13 c0       	rjmp	.+38     	; 0x1562 <gfx_mono_generic_draw_vertical_line+0x9e>
    153c:	d2 2f       	mov	r29, r18
    153e:	c8 2f       	mov	r28, r24
    1540:	68 2f       	mov	r22, r24
    1542:	81 2f       	mov	r24, r17
    1544:	0e 94 5a 0e 	call	0x1cb4	; 0x1cb4 <gfx_mono_ssd1306_mask_byte>
    1548:	1f 5f       	subi	r17, 0xFF	; 255
    154a:	2d 2f       	mov	r18, r29
    154c:	10 17       	cp	r17, r16
    154e:	30 f4       	brcc	.+12     	; 0x155c <gfx_mono_generic_draw_vertical_line+0x98>
    1550:	4f ef       	ldi	r20, 0xFF	; 255
    1552:	6c 2f       	mov	r22, r28
    1554:	81 2f       	mov	r24, r17
    1556:	0e 94 5a 0e 	call	0x1cb4	; 0x1cb4 <gfx_mono_ssd1306_mask_byte>
    155a:	f6 cf       	rjmp	.-20     	; 0x1548 <gfx_mono_generic_draw_vertical_line+0x84>
    155c:	4e 2d       	mov	r20, r14
    155e:	6c 2f       	mov	r22, r28
    1560:	80 2f       	mov	r24, r16
    1562:	df 91       	pop	r29
    1564:	cf 91       	pop	r28
    1566:	1f 91       	pop	r17
    1568:	0f 91       	pop	r16
    156a:	ff 90       	pop	r15
    156c:	ef 90       	pop	r14
    156e:	0c 94 5a 0e 	jmp	0x1cb4	; 0x1cb4 <gfx_mono_ssd1306_mask_byte>
    1572:	df 91       	pop	r29
    1574:	cf 91       	pop	r28
    1576:	1f 91       	pop	r17
    1578:	0f 91       	pop	r16
    157a:	ff 90       	pop	r15
    157c:	ef 90       	pop	r14
    157e:	08 95       	ret

00001580 <gfx_mono_generic_draw_line>:
    1580:	8f 92       	push	r8
    1582:	9f 92       	push	r9
    1584:	bf 92       	push	r11
    1586:	cf 92       	push	r12
    1588:	df 92       	push	r13
    158a:	ef 92       	push	r14
    158c:	ff 92       	push	r15
    158e:	0f 93       	push	r16
    1590:	1f 93       	push	r17
    1592:	cf 93       	push	r28
    1594:	df 93       	push	r29
    1596:	d8 2f       	mov	r29, r24
    1598:	16 2f       	mov	r17, r22
    159a:	b0 2e       	mov	r11, r16
    159c:	48 17       	cp	r20, r24
    159e:	28 f4       	brcc	.+10     	; 0x15aa <gfx_mono_generic_draw_line+0x2a>
    15a0:	12 2f       	mov	r17, r18
    15a2:	26 2f       	mov	r18, r22
    15a4:	8d 2f       	mov	r24, r29
    15a6:	d4 2f       	mov	r29, r20
    15a8:	48 2f       	mov	r20, r24
    15aa:	c4 2f       	mov	r28, r20
    15ac:	cd 1b       	sub	r28, r29
    15ae:	21 1b       	sub	r18, r17
    15b0:	f2 2e       	mov	r15, r18
    15b2:	c7 ff       	sbrs	r28, 7
    15b4:	03 c0       	rjmp	.+6      	; 0x15bc <gfx_mono_generic_draw_line+0x3c>
    15b6:	c1 95       	neg	r28
    15b8:	0f ef       	ldi	r16, 0xFF	; 255
    15ba:	01 c0       	rjmp	.+2      	; 0x15be <gfx_mono_generic_draw_line+0x3e>
    15bc:	01 e0       	ldi	r16, 0x01	; 1
    15be:	27 ff       	sbrs	r18, 7
    15c0:	05 c0       	rjmp	.+10     	; 0x15cc <gfx_mono_generic_draw_line+0x4c>
    15c2:	f2 2e       	mov	r15, r18
    15c4:	f1 94       	neg	r15
    15c6:	cc 24       	eor	r12, r12
    15c8:	ca 94       	dec	r12
    15ca:	02 c0       	rjmp	.+4      	; 0x15d0 <gfx_mono_generic_draw_line+0x50>
    15cc:	cc 24       	eor	r12, r12
    15ce:	c3 94       	inc	r12
    15d0:	fc 16       	cp	r15, r28
    15d2:	cc f4       	brge	.+50     	; 0x1606 <gfx_mono_generic_draw_line+0x86>
    15d4:	ef 2c       	mov	r14, r15
    15d6:	ec 1a       	sub	r14, r28
    15d8:	d1 2c       	mov	r13, r1
    15da:	8c 2e       	mov	r8, r28
    15dc:	99 24       	eor	r9, r9
    15de:	87 fc       	sbrc	r8, 7
    15e0:	90 94       	com	r9
    15e2:	8d 2d       	mov	r24, r13
    15e4:	90 e0       	ldi	r25, 0x00	; 0
    15e6:	88 16       	cp	r8, r24
    15e8:	99 06       	cpc	r9, r25
    15ea:	34 f1       	brlt	.+76     	; 0x1638 <gfx_mono_generic_draw_line+0xb8>
    15ec:	4b 2d       	mov	r20, r11
    15ee:	61 2f       	mov	r22, r17
    15f0:	8d 2f       	mov	r24, r29
    15f2:	0e 94 1c 0e 	call	0x1c38	; 0x1c38 <gfx_mono_ssd1306_draw_pixel>
    15f6:	e7 fc       	sbrc	r14, 7
    15f8:	02 c0       	rjmp	.+4      	; 0x15fe <gfx_mono_generic_draw_line+0x7e>
    15fa:	ec 1a       	sub	r14, r28
    15fc:	1c 0d       	add	r17, r12
    15fe:	ef 0c       	add	r14, r15
    1600:	d0 0f       	add	r29, r16
    1602:	d3 94       	inc	r13
    1604:	ee cf       	rjmp	.-36     	; 0x15e2 <gfx_mono_generic_draw_line+0x62>
    1606:	ec 2e       	mov	r14, r28
    1608:	ef 18       	sub	r14, r15
    160a:	d1 2c       	mov	r13, r1
    160c:	8f 2c       	mov	r8, r15
    160e:	99 24       	eor	r9, r9
    1610:	87 fc       	sbrc	r8, 7
    1612:	90 94       	com	r9
    1614:	8d 2d       	mov	r24, r13
    1616:	90 e0       	ldi	r25, 0x00	; 0
    1618:	88 16       	cp	r8, r24
    161a:	99 06       	cpc	r9, r25
    161c:	6c f0       	brlt	.+26     	; 0x1638 <gfx_mono_generic_draw_line+0xb8>
    161e:	4b 2d       	mov	r20, r11
    1620:	61 2f       	mov	r22, r17
    1622:	8d 2f       	mov	r24, r29
    1624:	0e 94 1c 0e 	call	0x1c38	; 0x1c38 <gfx_mono_ssd1306_draw_pixel>
    1628:	e7 fc       	sbrc	r14, 7
    162a:	02 c0       	rjmp	.+4      	; 0x1630 <gfx_mono_generic_draw_line+0xb0>
    162c:	ef 18       	sub	r14, r15
    162e:	d0 0f       	add	r29, r16
    1630:	ec 0e       	add	r14, r28
    1632:	1c 0d       	add	r17, r12
    1634:	d3 94       	inc	r13
    1636:	ee cf       	rjmp	.-36     	; 0x1614 <gfx_mono_generic_draw_line+0x94>
    1638:	df 91       	pop	r29
    163a:	cf 91       	pop	r28
    163c:	1f 91       	pop	r17
    163e:	0f 91       	pop	r16
    1640:	ff 90       	pop	r15
    1642:	ef 90       	pop	r14
    1644:	df 90       	pop	r13
    1646:	cf 90       	pop	r12
    1648:	bf 90       	pop	r11
    164a:	9f 90       	pop	r9
    164c:	8f 90       	pop	r8
    164e:	08 95       	ret

00001650 <gfx_mono_generic_draw_rect>:
    1650:	ff 92       	push	r15
    1652:	0f 93       	push	r16
    1654:	1f 93       	push	r17
    1656:	cf 93       	push	r28
    1658:	df 93       	push	r29
    165a:	d8 2f       	mov	r29, r24
    165c:	16 2f       	mov	r17, r22
    165e:	c4 2f       	mov	r28, r20
    1660:	f2 2e       	mov	r15, r18
    1662:	20 2f       	mov	r18, r16
    1664:	0e 94 f9 09 	call	0x13f2	; 0x13f2 <gfx_mono_generic_draw_horizontal_line>
    1668:	6f ef       	ldi	r22, 0xFF	; 255
    166a:	6f 0d       	add	r22, r15
    166c:	61 0f       	add	r22, r17
    166e:	20 2f       	mov	r18, r16
    1670:	4c 2f       	mov	r20, r28
    1672:	8d 2f       	mov	r24, r29
    1674:	0e 94 f9 09 	call	0x13f2	; 0x13f2 <gfx_mono_generic_draw_horizontal_line>
    1678:	20 2f       	mov	r18, r16
    167a:	4f 2d       	mov	r20, r15
    167c:	61 2f       	mov	r22, r17
    167e:	8d 2f       	mov	r24, r29
    1680:	0e 94 62 0a 	call	0x14c4	; 0x14c4 <gfx_mono_generic_draw_vertical_line>
    1684:	8f ef       	ldi	r24, 0xFF	; 255
    1686:	8c 0f       	add	r24, r28
    1688:	20 2f       	mov	r18, r16
    168a:	4f 2d       	mov	r20, r15
    168c:	61 2f       	mov	r22, r17
    168e:	8d 0f       	add	r24, r29
    1690:	df 91       	pop	r29
    1692:	cf 91       	pop	r28
    1694:	1f 91       	pop	r17
    1696:	0f 91       	pop	r16
    1698:	ff 90       	pop	r15
    169a:	0c 94 62 0a 	jmp	0x14c4	; 0x14c4 <gfx_mono_generic_draw_vertical_line>

0000169e <gfx_mono_generic_draw_filled_rect>:
    169e:	ff 92       	push	r15
    16a0:	0f 93       	push	r16
    16a2:	1f 93       	push	r17
    16a4:	cf 93       	push	r28
    16a6:	df 93       	push	r29
    16a8:	22 23       	and	r18, r18
    16aa:	71 f0       	breq	.+28     	; 0x16c8 <gfx_mono_generic_draw_filled_rect+0x2a>
    16ac:	c2 2f       	mov	r28, r18
    16ae:	14 2f       	mov	r17, r20
    16b0:	f6 2e       	mov	r15, r22
    16b2:	d8 2f       	mov	r29, r24
    16b4:	c1 50       	subi	r28, 0x01	; 1
    16b6:	6c 2f       	mov	r22, r28
    16b8:	6f 0d       	add	r22, r15
    16ba:	20 2f       	mov	r18, r16
    16bc:	41 2f       	mov	r20, r17
    16be:	8d 2f       	mov	r24, r29
    16c0:	0e 94 f9 09 	call	0x13f2	; 0x13f2 <gfx_mono_generic_draw_horizontal_line>
    16c4:	c1 50       	subi	r28, 0x01	; 1
    16c6:	b8 f7       	brcc	.-18     	; 0x16b6 <gfx_mono_generic_draw_filled_rect+0x18>
    16c8:	df 91       	pop	r29
    16ca:	cf 91       	pop	r28
    16cc:	1f 91       	pop	r17
    16ce:	0f 91       	pop	r16
    16d0:	ff 90       	pop	r15
    16d2:	08 95       	ret

000016d4 <gfx_mono_generic_draw_circle>:
    16d4:	5f 92       	push	r5
    16d6:	6f 92       	push	r6
    16d8:	7f 92       	push	r7
    16da:	8f 92       	push	r8
    16dc:	9f 92       	push	r9
    16de:	af 92       	push	r10
    16e0:	bf 92       	push	r11
    16e2:	cf 92       	push	r12
    16e4:	df 92       	push	r13
    16e6:	ef 92       	push	r14
    16e8:	ff 92       	push	r15
    16ea:	0f 93       	push	r16
    16ec:	1f 93       	push	r17
    16ee:	cf 93       	push	r28
    16f0:	df 93       	push	r29
    16f2:	18 2f       	mov	r17, r24
    16f4:	d6 2e       	mov	r13, r22
    16f6:	c4 2f       	mov	r28, r20
    16f8:	c2 2e       	mov	r12, r18
    16fa:	41 11       	cpse	r20, r1
    16fc:	12 c0       	rjmp	.+36     	; 0x1722 <gfx_mono_generic_draw_circle+0x4e>
    16fe:	42 2f       	mov	r20, r18
    1700:	df 91       	pop	r29
    1702:	cf 91       	pop	r28
    1704:	1f 91       	pop	r17
    1706:	0f 91       	pop	r16
    1708:	ff 90       	pop	r15
    170a:	ef 90       	pop	r14
    170c:	df 90       	pop	r13
    170e:	cf 90       	pop	r12
    1710:	bf 90       	pop	r11
    1712:	af 90       	pop	r10
    1714:	9f 90       	pop	r9
    1716:	8f 90       	pop	r8
    1718:	7f 90       	pop	r7
    171a:	6f 90       	pop	r6
    171c:	5f 90       	pop	r5
    171e:	0c 94 1c 0e 	jmp	0x1c38	; 0x1c38 <gfx_mono_ssd1306_draw_pixel>
    1722:	e4 2e       	mov	r14, r20
    1724:	f1 2c       	mov	r15, r1
    1726:	f1 94       	neg	r15
    1728:	e1 94       	neg	r14
    172a:	f1 08       	sbc	r15, r1
    172c:	ee 0c       	add	r14, r14
    172e:	ff 1c       	adc	r15, r15
    1730:	83 e0       	ldi	r24, 0x03	; 3
    1732:	e8 0e       	add	r14, r24
    1734:	f1 1c       	adc	r15, r1
    1736:	d0 e0       	ldi	r29, 0x00	; 0
    1738:	80 2f       	mov	r24, r16
    173a:	81 70       	andi	r24, 0x01	; 1
    173c:	b8 2e       	mov	r11, r24
    173e:	80 2f       	mov	r24, r16
    1740:	82 70       	andi	r24, 0x02	; 2
    1742:	a8 2e       	mov	r10, r24
    1744:	80 2f       	mov	r24, r16
    1746:	84 70       	andi	r24, 0x04	; 4
    1748:	98 2e       	mov	r9, r24
    174a:	80 2f       	mov	r24, r16
    174c:	88 70       	andi	r24, 0x08	; 8
    174e:	88 2e       	mov	r8, r24
    1750:	80 2f       	mov	r24, r16
    1752:	80 71       	andi	r24, 0x10	; 16
    1754:	78 2e       	mov	r7, r24
    1756:	80 2f       	mov	r24, r16
    1758:	80 72       	andi	r24, 0x20	; 32
    175a:	68 2e       	mov	r6, r24
    175c:	80 2f       	mov	r24, r16
    175e:	80 74       	andi	r24, 0x40	; 64
    1760:	58 2e       	mov	r5, r24
    1762:	bb 20       	and	r11, r11
    1764:	39 f0       	breq	.+14     	; 0x1774 <gfx_mono_generic_draw_circle+0xa0>
    1766:	4c 2d       	mov	r20, r12
    1768:	6d 2d       	mov	r22, r13
    176a:	6d 1b       	sub	r22, r29
    176c:	8c 2f       	mov	r24, r28
    176e:	81 0f       	add	r24, r17
    1770:	0e 94 1c 0e 	call	0x1c38	; 0x1c38 <gfx_mono_ssd1306_draw_pixel>
    1774:	aa 20       	and	r10, r10
    1776:	39 f0       	breq	.+14     	; 0x1786 <gfx_mono_generic_draw_circle+0xb2>
    1778:	4c 2d       	mov	r20, r12
    177a:	6d 2d       	mov	r22, r13
    177c:	6c 1b       	sub	r22, r28
    177e:	8d 2f       	mov	r24, r29
    1780:	81 0f       	add	r24, r17
    1782:	0e 94 1c 0e 	call	0x1c38	; 0x1c38 <gfx_mono_ssd1306_draw_pixel>
    1786:	99 20       	and	r9, r9
    1788:	39 f0       	breq	.+14     	; 0x1798 <gfx_mono_generic_draw_circle+0xc4>
    178a:	4c 2d       	mov	r20, r12
    178c:	6d 2d       	mov	r22, r13
    178e:	6c 1b       	sub	r22, r28
    1790:	81 2f       	mov	r24, r17
    1792:	8d 1b       	sub	r24, r29
    1794:	0e 94 1c 0e 	call	0x1c38	; 0x1c38 <gfx_mono_ssd1306_draw_pixel>
    1798:	88 20       	and	r8, r8
    179a:	39 f0       	breq	.+14     	; 0x17aa <gfx_mono_generic_draw_circle+0xd6>
    179c:	4c 2d       	mov	r20, r12
    179e:	6d 2d       	mov	r22, r13
    17a0:	6d 1b       	sub	r22, r29
    17a2:	81 2f       	mov	r24, r17
    17a4:	8c 1b       	sub	r24, r28
    17a6:	0e 94 1c 0e 	call	0x1c38	; 0x1c38 <gfx_mono_ssd1306_draw_pixel>
    17aa:	77 20       	and	r7, r7
    17ac:	39 f0       	breq	.+14     	; 0x17bc <gfx_mono_generic_draw_circle+0xe8>
    17ae:	4c 2d       	mov	r20, r12
    17b0:	6d 2f       	mov	r22, r29
    17b2:	6d 0d       	add	r22, r13
    17b4:	81 2f       	mov	r24, r17
    17b6:	8c 1b       	sub	r24, r28
    17b8:	0e 94 1c 0e 	call	0x1c38	; 0x1c38 <gfx_mono_ssd1306_draw_pixel>
    17bc:	66 20       	and	r6, r6
    17be:	39 f0       	breq	.+14     	; 0x17ce <gfx_mono_generic_draw_circle+0xfa>
    17c0:	4c 2d       	mov	r20, r12
    17c2:	6c 2f       	mov	r22, r28
    17c4:	6d 0d       	add	r22, r13
    17c6:	81 2f       	mov	r24, r17
    17c8:	8d 1b       	sub	r24, r29
    17ca:	0e 94 1c 0e 	call	0x1c38	; 0x1c38 <gfx_mono_ssd1306_draw_pixel>
    17ce:	55 20       	and	r5, r5
    17d0:	39 f0       	breq	.+14     	; 0x17e0 <gfx_mono_generic_draw_circle+0x10c>
    17d2:	4c 2d       	mov	r20, r12
    17d4:	6c 2f       	mov	r22, r28
    17d6:	6d 0d       	add	r22, r13
    17d8:	8d 2f       	mov	r24, r29
    17da:	81 0f       	add	r24, r17
    17dc:	0e 94 1c 0e 	call	0x1c38	; 0x1c38 <gfx_mono_ssd1306_draw_pixel>
    17e0:	07 ff       	sbrs	r16, 7
    17e2:	07 c0       	rjmp	.+14     	; 0x17f2 <gfx_mono_generic_draw_circle+0x11e>
    17e4:	4c 2d       	mov	r20, r12
    17e6:	6d 2f       	mov	r22, r29
    17e8:	6d 0d       	add	r22, r13
    17ea:	8c 2f       	mov	r24, r28
    17ec:	81 0f       	add	r24, r17
    17ee:	0e 94 1c 0e 	call	0x1c38	; 0x1c38 <gfx_mono_ssd1306_draw_pixel>
    17f2:	ed 2f       	mov	r30, r29
    17f4:	f0 e0       	ldi	r31, 0x00	; 0
    17f6:	f7 fe       	sbrs	r15, 7
    17f8:	08 c0       	rjmp	.+16     	; 0x180a <gfx_mono_generic_draw_circle+0x136>
    17fa:	ee 0f       	add	r30, r30
    17fc:	ff 1f       	adc	r31, r31
    17fe:	ee 0f       	add	r30, r30
    1800:	ff 1f       	adc	r31, r31
    1802:	36 96       	adiw	r30, 0x06	; 6
    1804:	ee 0e       	add	r14, r30
    1806:	ff 1e       	adc	r15, r31
    1808:	0a c0       	rjmp	.+20     	; 0x181e <gfx_mono_generic_draw_circle+0x14a>
    180a:	ec 1b       	sub	r30, r28
    180c:	f1 09       	sbc	r31, r1
    180e:	ee 0f       	add	r30, r30
    1810:	ff 1f       	adc	r31, r31
    1812:	ee 0f       	add	r30, r30
    1814:	ff 1f       	adc	r31, r31
    1816:	3a 96       	adiw	r30, 0x0a	; 10
    1818:	ee 0e       	add	r14, r30
    181a:	ff 1e       	adc	r15, r31
    181c:	c1 50       	subi	r28, 0x01	; 1
    181e:	df 5f       	subi	r29, 0xFF	; 255
    1820:	cd 17       	cp	r28, r29
    1822:	08 f0       	brcs	.+2      	; 0x1826 <gfx_mono_generic_draw_circle+0x152>
    1824:	9e cf       	rjmp	.-196    	; 0x1762 <gfx_mono_generic_draw_circle+0x8e>
    1826:	df 91       	pop	r29
    1828:	cf 91       	pop	r28
    182a:	1f 91       	pop	r17
    182c:	0f 91       	pop	r16
    182e:	ff 90       	pop	r15
    1830:	ef 90       	pop	r14
    1832:	df 90       	pop	r13
    1834:	cf 90       	pop	r12
    1836:	bf 90       	pop	r11
    1838:	af 90       	pop	r10
    183a:	9f 90       	pop	r9
    183c:	8f 90       	pop	r8
    183e:	7f 90       	pop	r7
    1840:	6f 90       	pop	r6
    1842:	5f 90       	pop	r5
    1844:	08 95       	ret

00001846 <gfx_mono_generic_draw_filled_circle>:
    1846:	8f 92       	push	r8
    1848:	9f 92       	push	r9
    184a:	af 92       	push	r10
    184c:	bf 92       	push	r11
    184e:	cf 92       	push	r12
    1850:	df 92       	push	r13
    1852:	ef 92       	push	r14
    1854:	ff 92       	push	r15
    1856:	0f 93       	push	r16
    1858:	1f 93       	push	r17
    185a:	cf 93       	push	r28
    185c:	df 93       	push	r29
    185e:	18 2f       	mov	r17, r24
    1860:	d6 2e       	mov	r13, r22
    1862:	c4 2f       	mov	r28, r20
    1864:	c2 2e       	mov	r12, r18
    1866:	41 11       	cpse	r20, r1
    1868:	0f c0       	rjmp	.+30     	; 0x1888 <gfx_mono_generic_draw_filled_circle+0x42>
    186a:	42 2f       	mov	r20, r18
    186c:	df 91       	pop	r29
    186e:	cf 91       	pop	r28
    1870:	1f 91       	pop	r17
    1872:	0f 91       	pop	r16
    1874:	ff 90       	pop	r15
    1876:	ef 90       	pop	r14
    1878:	df 90       	pop	r13
    187a:	cf 90       	pop	r12
    187c:	bf 90       	pop	r11
    187e:	af 90       	pop	r10
    1880:	9f 90       	pop	r9
    1882:	8f 90       	pop	r8
    1884:	0c 94 1c 0e 	jmp	0x1c38	; 0x1c38 <gfx_mono_ssd1306_draw_pixel>
    1888:	e4 2e       	mov	r14, r20
    188a:	f1 2c       	mov	r15, r1
    188c:	f1 94       	neg	r15
    188e:	e1 94       	neg	r14
    1890:	f1 08       	sbc	r15, r1
    1892:	ee 0c       	add	r14, r14
    1894:	ff 1c       	adc	r15, r15
    1896:	83 e0       	ldi	r24, 0x03	; 3
    1898:	e8 0e       	add	r14, r24
    189a:	f1 1c       	adc	r15, r1
    189c:	bb 24       	eor	r11, r11
    189e:	b3 94       	inc	r11
    18a0:	d0 e0       	ldi	r29, 0x00	; 0
    18a2:	80 2f       	mov	r24, r16
    18a4:	83 70       	andi	r24, 0x03	; 3
    18a6:	a8 2e       	mov	r10, r24
    18a8:	80 2f       	mov	r24, r16
    18aa:	8c 70       	andi	r24, 0x0C	; 12
    18ac:	98 2e       	mov	r9, r24
    18ae:	80 2f       	mov	r24, r16
    18b0:	80 73       	andi	r24, 0x30	; 48
    18b2:	88 2e       	mov	r8, r24
    18b4:	00 7c       	andi	r16, 0xC0	; 192
    18b6:	aa 20       	and	r10, r10
    18b8:	89 f0       	breq	.+34     	; 0x18dc <gfx_mono_generic_draw_filled_circle+0x96>
    18ba:	2c 2d       	mov	r18, r12
    18bc:	4b 2d       	mov	r20, r11
    18be:	6d 2d       	mov	r22, r13
    18c0:	6d 1b       	sub	r22, r29
    18c2:	8c 2f       	mov	r24, r28
    18c4:	81 0f       	add	r24, r17
    18c6:	0e 94 62 0a 	call	0x14c4	; 0x14c4 <gfx_mono_generic_draw_vertical_line>
    18ca:	2c 2d       	mov	r18, r12
    18cc:	41 e0       	ldi	r20, 0x01	; 1
    18ce:	4c 0f       	add	r20, r28
    18d0:	6d 2d       	mov	r22, r13
    18d2:	6c 1b       	sub	r22, r28
    18d4:	8d 2f       	mov	r24, r29
    18d6:	81 0f       	add	r24, r17
    18d8:	0e 94 62 0a 	call	0x14c4	; 0x14c4 <gfx_mono_generic_draw_vertical_line>
    18dc:	99 20       	and	r9, r9
    18de:	89 f0       	breq	.+34     	; 0x1902 <gfx_mono_generic_draw_filled_circle+0xbc>
    18e0:	2c 2d       	mov	r18, r12
    18e2:	4b 2d       	mov	r20, r11
    18e4:	6d 2d       	mov	r22, r13
    18e6:	6d 1b       	sub	r22, r29
    18e8:	81 2f       	mov	r24, r17
    18ea:	8c 1b       	sub	r24, r28
    18ec:	0e 94 62 0a 	call	0x14c4	; 0x14c4 <gfx_mono_generic_draw_vertical_line>
    18f0:	2c 2d       	mov	r18, r12
    18f2:	41 e0       	ldi	r20, 0x01	; 1
    18f4:	4c 0f       	add	r20, r28
    18f6:	6d 2d       	mov	r22, r13
    18f8:	6c 1b       	sub	r22, r28
    18fa:	81 2f       	mov	r24, r17
    18fc:	8d 1b       	sub	r24, r29
    18fe:	0e 94 62 0a 	call	0x14c4	; 0x14c4 <gfx_mono_generic_draw_vertical_line>
    1902:	88 20       	and	r8, r8
    1904:	79 f0       	breq	.+30     	; 0x1924 <gfx_mono_generic_draw_filled_circle+0xde>
    1906:	2c 2d       	mov	r18, r12
    1908:	4b 2d       	mov	r20, r11
    190a:	6d 2d       	mov	r22, r13
    190c:	81 2f       	mov	r24, r17
    190e:	8c 1b       	sub	r24, r28
    1910:	0e 94 62 0a 	call	0x14c4	; 0x14c4 <gfx_mono_generic_draw_vertical_line>
    1914:	2c 2d       	mov	r18, r12
    1916:	41 e0       	ldi	r20, 0x01	; 1
    1918:	4c 0f       	add	r20, r28
    191a:	6d 2d       	mov	r22, r13
    191c:	81 2f       	mov	r24, r17
    191e:	8d 1b       	sub	r24, r29
    1920:	0e 94 62 0a 	call	0x14c4	; 0x14c4 <gfx_mono_generic_draw_vertical_line>
    1924:	00 23       	and	r16, r16
    1926:	79 f0       	breq	.+30     	; 0x1946 <gfx_mono_generic_draw_filled_circle+0x100>
    1928:	2c 2d       	mov	r18, r12
    192a:	4b 2d       	mov	r20, r11
    192c:	6d 2d       	mov	r22, r13
    192e:	8c 2f       	mov	r24, r28
    1930:	81 0f       	add	r24, r17
    1932:	0e 94 62 0a 	call	0x14c4	; 0x14c4 <gfx_mono_generic_draw_vertical_line>
    1936:	2c 2d       	mov	r18, r12
    1938:	41 e0       	ldi	r20, 0x01	; 1
    193a:	4c 0f       	add	r20, r28
    193c:	6d 2d       	mov	r22, r13
    193e:	8d 2f       	mov	r24, r29
    1940:	81 0f       	add	r24, r17
    1942:	0e 94 62 0a 	call	0x14c4	; 0x14c4 <gfx_mono_generic_draw_vertical_line>
    1946:	ed 2f       	mov	r30, r29
    1948:	f0 e0       	ldi	r31, 0x00	; 0
    194a:	f7 fe       	sbrs	r15, 7
    194c:	08 c0       	rjmp	.+16     	; 0x195e <gfx_mono_generic_draw_filled_circle+0x118>
    194e:	ee 0f       	add	r30, r30
    1950:	ff 1f       	adc	r31, r31
    1952:	ee 0f       	add	r30, r30
    1954:	ff 1f       	adc	r31, r31
    1956:	36 96       	adiw	r30, 0x06	; 6
    1958:	ee 0e       	add	r14, r30
    195a:	ff 1e       	adc	r15, r31
    195c:	0a c0       	rjmp	.+20     	; 0x1972 <gfx_mono_generic_draw_filled_circle+0x12c>
    195e:	ec 1b       	sub	r30, r28
    1960:	f1 09       	sbc	r31, r1
    1962:	ee 0f       	add	r30, r30
    1964:	ff 1f       	adc	r31, r31
    1966:	ee 0f       	add	r30, r30
    1968:	ff 1f       	adc	r31, r31
    196a:	3a 96       	adiw	r30, 0x0a	; 10
    196c:	ee 0e       	add	r14, r30
    196e:	ff 1e       	adc	r15, r31
    1970:	c1 50       	subi	r28, 0x01	; 1
    1972:	df 5f       	subi	r29, 0xFF	; 255
    1974:	b3 94       	inc	r11
    1976:	cd 17       	cp	r28, r29
    1978:	08 f0       	brcs	.+2      	; 0x197c <gfx_mono_generic_draw_filled_circle+0x136>
    197a:	9d cf       	rjmp	.-198    	; 0x18b6 <gfx_mono_generic_draw_filled_circle+0x70>
    197c:	df 91       	pop	r29
    197e:	cf 91       	pop	r28
    1980:	1f 91       	pop	r17
    1982:	0f 91       	pop	r16
    1984:	ff 90       	pop	r15
    1986:	ef 90       	pop	r14
    1988:	df 90       	pop	r13
    198a:	cf 90       	pop	r12
    198c:	bf 90       	pop	r11
    198e:	af 90       	pop	r10
    1990:	9f 90       	pop	r9
    1992:	8f 90       	pop	r8
    1994:	08 95       	ret

00001996 <gfx_mono_generic_put_bitmap>:
    1996:	bf 92       	push	r11
    1998:	cf 92       	push	r12
    199a:	df 92       	push	r13
    199c:	ef 92       	push	r14
    199e:	ff 92       	push	r15
    19a0:	0f 93       	push	r16
    19a2:	1f 93       	push	r17
    19a4:	cf 93       	push	r28
    19a6:	df 93       	push	r29
    19a8:	ec 01       	movw	r28, r24
    19aa:	b6 2e       	mov	r11, r22
    19ac:	f9 80       	ldd	r15, Y+1	; 0x01
    19ae:	f6 94       	lsr	r15
    19b0:	f6 94       	lsr	r15
    19b2:	f6 94       	lsr	r15
    19b4:	e4 2e       	mov	r14, r20
    19b6:	e6 94       	lsr	r14
    19b8:	e6 94       	lsr	r14
    19ba:	e6 94       	lsr	r14
    19bc:	8a 81       	ldd	r24, Y+2	; 0x02
    19be:	88 23       	and	r24, r24
    19c0:	29 f1       	breq	.+74     	; 0x1a0c <gfx_mono_generic_put_bitmap+0x76>
    19c2:	81 30       	cpi	r24, 0x01	; 1
    19c4:	c9 f5       	brne	.+114    	; 0x1a38 <gfx_mono_generic_put_bitmap+0xa2>
    19c6:	c1 2c       	mov	r12, r1
    19c8:	d1 2c       	mov	r13, r1
    19ca:	8c 2d       	mov	r24, r12
    19cc:	cf 14       	cp	r12, r15
    19ce:	a0 f5       	brcc	.+104    	; 0x1a38 <gfx_mono_generic_put_bitmap+0xa2>
    19d0:	10 e0       	ldi	r17, 0x00	; 0
    19d2:	08 2f       	mov	r16, r24
    19d4:	0e 0d       	add	r16, r14
    19d6:	88 81       	ld	r24, Y
    19d8:	18 17       	cp	r17, r24
    19da:	a0 f4       	brcc	.+40     	; 0x1a04 <gfx_mono_generic_put_bitmap+0x6e>
    19dc:	8c 9d       	mul	r24, r12
    19de:	f0 01       	movw	r30, r0
    19e0:	8d 9d       	mul	r24, r13
    19e2:	f0 0d       	add	r31, r0
    19e4:	11 24       	eor	r1, r1
    19e6:	e1 0f       	add	r30, r17
    19e8:	f1 1d       	adc	r31, r1
    19ea:	4b 81       	ldd	r20, Y+3	; 0x03
    19ec:	5c 81       	ldd	r21, Y+4	; 0x04
    19ee:	e4 0f       	add	r30, r20
    19f0:	f5 1f       	adc	r31, r21
    19f2:	44 91       	lpm	r20, Z
    19f4:	61 2f       	mov	r22, r17
    19f6:	6b 0d       	add	r22, r11
    19f8:	20 e0       	ldi	r18, 0x00	; 0
    19fa:	80 2f       	mov	r24, r16
    19fc:	0e 94 df 0d 	call	0x1bbe	; 0x1bbe <gfx_mono_ssd1306_put_byte>
    1a00:	1f 5f       	subi	r17, 0xFF	; 255
    1a02:	e9 cf       	rjmp	.-46     	; 0x19d6 <gfx_mono_generic_put_bitmap+0x40>
    1a04:	8f ef       	ldi	r24, 0xFF	; 255
    1a06:	c8 1a       	sub	r12, r24
    1a08:	d8 0a       	sbc	r13, r24
    1a0a:	df cf       	rjmp	.-66     	; 0x19ca <gfx_mono_generic_put_bitmap+0x34>
    1a0c:	00 e0       	ldi	r16, 0x00	; 0
    1a0e:	10 e0       	ldi	r17, 0x00	; 0
    1a10:	0f 15       	cp	r16, r15
    1a12:	90 f4       	brcc	.+36     	; 0x1a38 <gfx_mono_generic_put_bitmap+0xa2>
    1a14:	28 81       	ld	r18, Y
    1a16:	6e 2d       	mov	r22, r14
    1a18:	60 0f       	add	r22, r16
    1a1a:	20 9f       	mul	r18, r16
    1a1c:	c0 01       	movw	r24, r0
    1a1e:	21 9f       	mul	r18, r17
    1a20:	90 0d       	add	r25, r0
    1a22:	11 24       	eor	r1, r1
    1a24:	eb 81       	ldd	r30, Y+3	; 0x03
    1a26:	fc 81       	ldd	r31, Y+4	; 0x04
    1a28:	4b 2d       	mov	r20, r11
    1a2a:	8e 0f       	add	r24, r30
    1a2c:	9f 1f       	adc	r25, r31
    1a2e:	0e 94 a2 0d 	call	0x1b44	; 0x1b44 <gfx_mono_ssd1306_put_page>
    1a32:	0f 5f       	subi	r16, 0xFF	; 255
    1a34:	1f 4f       	sbci	r17, 0xFF	; 255
    1a36:	ec cf       	rjmp	.-40     	; 0x1a10 <gfx_mono_generic_put_bitmap+0x7a>
    1a38:	df 91       	pop	r29
    1a3a:	cf 91       	pop	r28
    1a3c:	1f 91       	pop	r17
    1a3e:	0f 91       	pop	r16
    1a40:	ff 90       	pop	r15
    1a42:	ef 90       	pop	r14
    1a44:	df 90       	pop	r13
    1a46:	cf 90       	pop	r12
    1a48:	bf 90       	pop	r11
    1a4a:	08 95       	ret

00001a4c <__portable_avr_delay_cycles.constprop.2>:
    1a4c:	08 95       	ret

00001a4e <ssd1306_write_command>:
    1a4e:	1f 93       	push	r17
    1a50:	cf 93       	push	r28
    1a52:	df 93       	push	r29
    1a54:	1f 92       	push	r1
    1a56:	cd b7       	in	r28, 0x3d	; 61
    1a58:	de b7       	in	r29, 0x3e	; 62
    1a5a:	18 2f       	mov	r17, r24
    1a5c:	88 e0       	ldi	r24, 0x08	; 8
    1a5e:	89 83       	std	Y+1, r24	; 0x01
    1a60:	be 01       	movw	r22, r28
    1a62:	6f 5f       	subi	r22, 0xFF	; 255
    1a64:	7f 4f       	sbci	r23, 0xFF	; 255
    1a66:	80 ec       	ldi	r24, 0xC0	; 192
    1a68:	98 e0       	ldi	r25, 0x08	; 8
    1a6a:	0e 94 dc 08 	call	0x11b8	; 0x11b8 <spi_select_device>
    1a6e:	82 e0       	ldi	r24, 0x02	; 2
    1a70:	80 93 26 06 	sts	0x0626, r24
    1a74:	10 93 c3 08 	sts	0x08C3, r17
    1a78:	0e 94 26 0d 	call	0x1a4c	; 0x1a4c <__portable_avr_delay_cycles.constprop.2>
    1a7c:	be 01       	movw	r22, r28
    1a7e:	6f 5f       	subi	r22, 0xFF	; 255
    1a80:	7f 4f       	sbci	r23, 0xFF	; 255
    1a82:	80 ec       	ldi	r24, 0xC0	; 192
    1a84:	98 e0       	ldi	r25, 0x08	; 8
    1a86:	0e 94 f2 08 	call	0x11e4	; 0x11e4 <spi_deselect_device>
    1a8a:	0f 90       	pop	r0
    1a8c:	df 91       	pop	r29
    1a8e:	cf 91       	pop	r28
    1a90:	1f 91       	pop	r17
    1a92:	08 95       	ret

00001a94 <ssd1306_set_page_address>:
    1a94:	87 70       	andi	r24, 0x07	; 7
    1a96:	80 6b       	ori	r24, 0xB0	; 176
    1a98:	0c 94 27 0d 	jmp	0x1a4e	; 0x1a4e <ssd1306_write_command>

00001a9c <ssd1306_set_column_address>:
    1a9c:	cf 93       	push	r28
    1a9e:	c8 2f       	mov	r28, r24
    1aa0:	98 2f       	mov	r25, r24
    1aa2:	9f 77       	andi	r25, 0x7F	; 127
    1aa4:	89 2f       	mov	r24, r25
    1aa6:	82 95       	swap	r24
    1aa8:	8f 70       	andi	r24, 0x0F	; 15
    1aaa:	80 61       	ori	r24, 0x10	; 16
    1aac:	0e 94 27 0d 	call	0x1a4e	; 0x1a4e <ssd1306_write_command>
    1ab0:	8c 2f       	mov	r24, r28
    1ab2:	8f 70       	andi	r24, 0x0F	; 15
    1ab4:	cf 91       	pop	r28
    1ab6:	0c 94 27 0d 	jmp	0x1a4e	; 0x1a4e <ssd1306_write_command>

00001aba <ssd1306_write_data>:
    1aba:	1f 93       	push	r17
    1abc:	cf 93       	push	r28
    1abe:	df 93       	push	r29
    1ac0:	1f 92       	push	r1
    1ac2:	cd b7       	in	r28, 0x3d	; 61
    1ac4:	de b7       	in	r29, 0x3e	; 62
    1ac6:	18 2f       	mov	r17, r24
    1ac8:	88 e0       	ldi	r24, 0x08	; 8
    1aca:	89 83       	std	Y+1, r24	; 0x01
    1acc:	be 01       	movw	r22, r28
    1ace:	6f 5f       	subi	r22, 0xFF	; 255
    1ad0:	7f 4f       	sbci	r23, 0xFF	; 255
    1ad2:	80 ec       	ldi	r24, 0xC0	; 192
    1ad4:	98 e0       	ldi	r25, 0x08	; 8
    1ad6:	0e 94 dc 08 	call	0x11b8	; 0x11b8 <spi_select_device>
    1ada:	82 e0       	ldi	r24, 0x02	; 2
    1adc:	80 93 25 06 	sts	0x0625, r24
    1ae0:	10 93 c3 08 	sts	0x08C3, r17
    1ae4:	0e 94 26 0d 	call	0x1a4c	; 0x1a4c <__portable_avr_delay_cycles.constprop.2>
    1ae8:	be 01       	movw	r22, r28
    1aea:	6f 5f       	subi	r22, 0xFF	; 255
    1aec:	7f 4f       	sbci	r23, 0xFF	; 255
    1aee:	80 ec       	ldi	r24, 0xC0	; 192
    1af0:	98 e0       	ldi	r25, 0x08	; 8
    1af2:	0e 94 f2 08 	call	0x11e4	; 0x11e4 <spi_deselect_device>
    1af6:	0f 90       	pop	r0
    1af8:	df 91       	pop	r29
    1afa:	cf 91       	pop	r28
    1afc:	1f 91       	pop	r17
    1afe:	08 95       	ret

00001b00 <gfx_mono_ssd1306_get_pixel>:
    1b00:	1f 93       	push	r17
    1b02:	cf 93       	push	r28
    1b04:	87 fd       	sbrc	r24, 7
    1b06:	1a c0       	rjmp	.+52     	; 0x1b3c <gfx_mono_ssd1306_get_pixel+0x3c>
    1b08:	60 32       	cpi	r22, 0x20	; 32
    1b0a:	c0 f4       	brcc	.+48     	; 0x1b3c <gfx_mono_ssd1306_get_pixel+0x3c>
    1b0c:	c6 2f       	mov	r28, r22
    1b0e:	68 2f       	mov	r22, r24
    1b10:	1c 2f       	mov	r17, r28
    1b12:	16 95       	lsr	r17
    1b14:	16 95       	lsr	r17
    1b16:	16 95       	lsr	r17
    1b18:	81 2f       	mov	r24, r17
    1b1a:	0e 94 68 09 	call	0x12d0	; 0x12d0 <gfx_mono_framebuffer_get_byte>
    1b1e:	28 ef       	ldi	r18, 0xF8	; 248
    1b20:	21 03       	mulsu	r18, r17
    1b22:	a0 01       	movw	r20, r0
    1b24:	11 24       	eor	r1, r1
    1b26:	4c 0f       	add	r20, r28
    1b28:	51 1d       	adc	r21, r1
    1b2a:	21 e0       	ldi	r18, 0x01	; 1
    1b2c:	30 e0       	ldi	r19, 0x00	; 0
    1b2e:	04 2e       	mov	r0, r20
    1b30:	01 c0       	rjmp	.+2      	; 0x1b34 <gfx_mono_ssd1306_get_pixel+0x34>
    1b32:	22 0f       	add	r18, r18
    1b34:	0a 94       	dec	r0
    1b36:	ea f7       	brpl	.-6      	; 0x1b32 <gfx_mono_ssd1306_get_pixel+0x32>
    1b38:	82 23       	and	r24, r18
    1b3a:	01 c0       	rjmp	.+2      	; 0x1b3e <gfx_mono_ssd1306_get_pixel+0x3e>
    1b3c:	80 e0       	ldi	r24, 0x00	; 0
    1b3e:	cf 91       	pop	r28
    1b40:	1f 91       	pop	r17
    1b42:	08 95       	ret

00001b44 <gfx_mono_ssd1306_put_page>:
    1b44:	ff 92       	push	r15
    1b46:	0f 93       	push	r16
    1b48:	1f 93       	push	r17
    1b4a:	cf 93       	push	r28
    1b4c:	df 93       	push	r29
    1b4e:	18 2f       	mov	r17, r24
    1b50:	f9 2e       	mov	r15, r25
    1b52:	d6 2f       	mov	r29, r22
    1b54:	c4 2f       	mov	r28, r20
    1b56:	02 2f       	mov	r16, r18
    1b58:	0e 94 2f 09 	call	0x125e	; 0x125e <gfx_mono_framebuffer_put_page>
    1b5c:	8d 2f       	mov	r24, r29
    1b5e:	0e 94 4a 0d 	call	0x1a94	; 0x1a94 <ssd1306_set_page_address>
    1b62:	8c 2f       	mov	r24, r28
    1b64:	0e 94 4e 0d 	call	0x1a9c	; 0x1a9c <ssd1306_set_column_address>
    1b68:	c1 2f       	mov	r28, r17
    1b6a:	df 2d       	mov	r29, r15
    1b6c:	10 0f       	add	r17, r16
    1b6e:	89 91       	ld	r24, Y+
    1b70:	0e 94 5d 0d 	call	0x1aba	; 0x1aba <ssd1306_write_data>
    1b74:	1c 13       	cpse	r17, r28
    1b76:	fb cf       	rjmp	.-10     	; 0x1b6e <gfx_mono_ssd1306_put_page+0x2a>
    1b78:	df 91       	pop	r29
    1b7a:	cf 91       	pop	r28
    1b7c:	1f 91       	pop	r17
    1b7e:	0f 91       	pop	r16
    1b80:	ff 90       	pop	r15
    1b82:	08 95       	ret

00001b84 <gfx_mono_ssd1306_put_framebuffer>:
    1b84:	0f 93       	push	r16
    1b86:	1f 93       	push	r17
    1b88:	cf 93       	push	r28
    1b8a:	08 ea       	ldi	r16, 0xA8	; 168
    1b8c:	14 e2       	ldi	r17, 0x24	; 36
    1b8e:	c0 e0       	ldi	r28, 0x00	; 0
    1b90:	8c 2f       	mov	r24, r28
    1b92:	0e 94 4a 0d 	call	0x1a94	; 0x1a94 <ssd1306_set_page_address>
    1b96:	80 e0       	ldi	r24, 0x00	; 0
    1b98:	0e 94 4e 0d 	call	0x1a9c	; 0x1a9c <ssd1306_set_column_address>
    1b9c:	20 e8       	ldi	r18, 0x80	; 128
    1b9e:	40 e0       	ldi	r20, 0x00	; 0
    1ba0:	6c 2f       	mov	r22, r28
    1ba2:	c8 01       	movw	r24, r16
    1ba4:	0e 94 a2 0d 	call	0x1b44	; 0x1b44 <gfx_mono_ssd1306_put_page>
    1ba8:	cf 5f       	subi	r28, 0xFF	; 255
    1baa:	00 58       	subi	r16, 0x80	; 128
    1bac:	1f 4f       	sbci	r17, 0xFF	; 255
    1bae:	c4 30       	cpi	r28, 0x04	; 4
    1bb0:	79 f7       	brne	.-34     	; 0x1b90 <gfx_mono_ssd1306_put_framebuffer+0xc>
    1bb2:	cf 91       	pop	r28
    1bb4:	1f 91       	pop	r17
    1bb6:	0f 91       	pop	r16
    1bb8:	08 95       	ret

00001bba <gfx_mono_ssd1306_get_page>:
    1bba:	0c 94 45 09 	jmp	0x128a	; 0x128a <gfx_mono_framebuffer_get_page>

00001bbe <gfx_mono_ssd1306_put_byte>:
    1bbe:	1f 93       	push	r17
    1bc0:	cf 93       	push	r28
    1bc2:	df 93       	push	r29
    1bc4:	d8 2f       	mov	r29, r24
    1bc6:	16 2f       	mov	r17, r22
    1bc8:	c4 2f       	mov	r28, r20
    1bca:	22 23       	and	r18, r18
    1bcc:	89 f0       	breq	.+34     	; 0x1bf0 <gfx_mono_ssd1306_put_byte+0x32>
    1bce:	4c 2f       	mov	r20, r28
    1bd0:	61 2f       	mov	r22, r17
    1bd2:	8d 2f       	mov	r24, r29
    1bd4:	0e 94 5a 09 	call	0x12b4	; 0x12b4 <gfx_mono_framebuffer_put_byte>
    1bd8:	8d 2f       	mov	r24, r29
    1bda:	0e 94 4a 0d 	call	0x1a94	; 0x1a94 <ssd1306_set_page_address>
    1bde:	81 2f       	mov	r24, r17
    1be0:	0e 94 4e 0d 	call	0x1a9c	; 0x1a9c <ssd1306_set_column_address>
    1be4:	8c 2f       	mov	r24, r28
    1be6:	df 91       	pop	r29
    1be8:	cf 91       	pop	r28
    1bea:	1f 91       	pop	r17
    1bec:	0c 94 5d 0d 	jmp	0x1aba	; 0x1aba <ssd1306_write_data>
    1bf0:	0e 94 68 09 	call	0x12d0	; 0x12d0 <gfx_mono_framebuffer_get_byte>
    1bf4:	c8 13       	cpse	r28, r24
    1bf6:	eb cf       	rjmp	.-42     	; 0x1bce <gfx_mono_ssd1306_put_byte+0x10>
    1bf8:	df 91       	pop	r29
    1bfa:	cf 91       	pop	r28
    1bfc:	1f 91       	pop	r17
    1bfe:	08 95       	ret

00001c00 <gfx_mono_ssd1306_init>:
    1c00:	cf 93       	push	r28
    1c02:	df 93       	push	r29
    1c04:	88 ea       	ldi	r24, 0xA8	; 168
    1c06:	94 e2       	ldi	r25, 0x24	; 36
    1c08:	0e 94 2a 09 	call	0x1254	; 0x1254 <gfx_mono_set_framebuffer>
    1c0c:	0e 94 23 0f 	call	0x1e46	; 0x1e46 <ssd1306_init>
    1c10:	80 e4       	ldi	r24, 0x40	; 64
    1c12:	0e 94 27 0d 	call	0x1a4e	; 0x1a4e <ssd1306_write_command>
    1c16:	d0 e0       	ldi	r29, 0x00	; 0
    1c18:	c0 e0       	ldi	r28, 0x00	; 0
    1c1a:	21 e0       	ldi	r18, 0x01	; 1
    1c1c:	40 e0       	ldi	r20, 0x00	; 0
    1c1e:	6c 2f       	mov	r22, r28
    1c20:	8d 2f       	mov	r24, r29
    1c22:	0e 94 df 0d 	call	0x1bbe	; 0x1bbe <gfx_mono_ssd1306_put_byte>
    1c26:	cf 5f       	subi	r28, 0xFF	; 255
    1c28:	c0 38       	cpi	r28, 0x80	; 128
    1c2a:	b9 f7       	brne	.-18     	; 0x1c1a <gfx_mono_ssd1306_init+0x1a>
    1c2c:	df 5f       	subi	r29, 0xFF	; 255
    1c2e:	d4 30       	cpi	r29, 0x04	; 4
    1c30:	99 f7       	brne	.-26     	; 0x1c18 <gfx_mono_ssd1306_init+0x18>
    1c32:	df 91       	pop	r29
    1c34:	cf 91       	pop	r28
    1c36:	08 95       	ret

00001c38 <gfx_mono_ssd1306_draw_pixel>:
    1c38:	ff 92       	push	r15
    1c3a:	0f 93       	push	r16
    1c3c:	1f 93       	push	r17
    1c3e:	cf 93       	push	r28
    1c40:	df 93       	push	r29
    1c42:	87 fd       	sbrc	r24, 7
    1c44:	2f c0       	rjmp	.+94     	; 0x1ca4 <gfx_mono_ssd1306_draw_pixel+0x6c>
    1c46:	60 32       	cpi	r22, 0x20	; 32
    1c48:	68 f5       	brcc	.+90     	; 0x1ca4 <gfx_mono_ssd1306_draw_pixel+0x6c>
    1c4a:	04 2f       	mov	r16, r20
    1c4c:	18 2f       	mov	r17, r24
    1c4e:	f6 2e       	mov	r15, r22
    1c50:	f6 94       	lsr	r15
    1c52:	f6 94       	lsr	r15
    1c54:	f6 94       	lsr	r15
    1c56:	2f 2d       	mov	r18, r15
    1c58:	38 ef       	ldi	r19, 0xF8	; 248
    1c5a:	32 03       	mulsu	r19, r18
    1c5c:	c0 01       	movw	r24, r0
    1c5e:	11 24       	eor	r1, r1
    1c60:	86 0f       	add	r24, r22
    1c62:	91 1d       	adc	r25, r1
    1c64:	c1 e0       	ldi	r28, 0x01	; 1
    1c66:	d0 e0       	ldi	r29, 0x00	; 0
    1c68:	01 c0       	rjmp	.+2      	; 0x1c6c <gfx_mono_ssd1306_draw_pixel+0x34>
    1c6a:	cc 0f       	add	r28, r28
    1c6c:	8a 95       	dec	r24
    1c6e:	ea f7       	brpl	.-6      	; 0x1c6a <gfx_mono_ssd1306_draw_pixel+0x32>
    1c70:	61 2f       	mov	r22, r17
    1c72:	8f 2d       	mov	r24, r15
    1c74:	0e 94 68 09 	call	0x12d0	; 0x12d0 <gfx_mono_framebuffer_get_byte>
    1c78:	48 2f       	mov	r20, r24
    1c7a:	01 30       	cpi	r16, 0x01	; 1
    1c7c:	29 f0       	breq	.+10     	; 0x1c88 <gfx_mono_ssd1306_draw_pixel+0x50>
    1c7e:	30 f0       	brcs	.+12     	; 0x1c8c <gfx_mono_ssd1306_draw_pixel+0x54>
    1c80:	02 30       	cpi	r16, 0x02	; 2
    1c82:	31 f4       	brne	.+12     	; 0x1c90 <gfx_mono_ssd1306_draw_pixel+0x58>
    1c84:	4c 27       	eor	r20, r28
    1c86:	04 c0       	rjmp	.+8      	; 0x1c90 <gfx_mono_ssd1306_draw_pixel+0x58>
    1c88:	4c 2b       	or	r20, r28
    1c8a:	02 c0       	rjmp	.+4      	; 0x1c90 <gfx_mono_ssd1306_draw_pixel+0x58>
    1c8c:	c0 95       	com	r28
    1c8e:	4c 23       	and	r20, r28
    1c90:	20 e0       	ldi	r18, 0x00	; 0
    1c92:	61 2f       	mov	r22, r17
    1c94:	8f 2d       	mov	r24, r15
    1c96:	df 91       	pop	r29
    1c98:	cf 91       	pop	r28
    1c9a:	1f 91       	pop	r17
    1c9c:	0f 91       	pop	r16
    1c9e:	ff 90       	pop	r15
    1ca0:	0c 94 df 0d 	jmp	0x1bbe	; 0x1bbe <gfx_mono_ssd1306_put_byte>
    1ca4:	df 91       	pop	r29
    1ca6:	cf 91       	pop	r28
    1ca8:	1f 91       	pop	r17
    1caa:	0f 91       	pop	r16
    1cac:	ff 90       	pop	r15
    1cae:	08 95       	ret

00001cb0 <gfx_mono_ssd1306_get_byte>:
    1cb0:	0c 94 68 09 	jmp	0x12d0	; 0x12d0 <gfx_mono_framebuffer_get_byte>

00001cb4 <gfx_mono_ssd1306_mask_byte>:
    1cb4:	0f 93       	push	r16
    1cb6:	1f 93       	push	r17
    1cb8:	cf 93       	push	r28
    1cba:	df 93       	push	r29
    1cbc:	00 d0       	rcall	.+0      	; 0x1cbe <gfx_mono_ssd1306_mask_byte+0xa>
    1cbe:	cd b7       	in	r28, 0x3d	; 61
    1cc0:	de b7       	in	r29, 0x3e	; 62
    1cc2:	18 2f       	mov	r17, r24
    1cc4:	06 2f       	mov	r16, r22
    1cc6:	2a 83       	std	Y+2, r18	; 0x02
    1cc8:	49 83       	std	Y+1, r20	; 0x01
    1cca:	0e 94 68 09 	call	0x12d0	; 0x12d0 <gfx_mono_framebuffer_get_byte>
    1cce:	2a 81       	ldd	r18, Y+2	; 0x02
    1cd0:	49 81       	ldd	r20, Y+1	; 0x01
    1cd2:	21 30       	cpi	r18, 0x01	; 1
    1cd4:	29 f0       	breq	.+10     	; 0x1ce0 <gfx_mono_ssd1306_mask_byte+0x2c>
    1cd6:	30 f0       	brcs	.+12     	; 0x1ce4 <gfx_mono_ssd1306_mask_byte+0x30>
    1cd8:	22 30       	cpi	r18, 0x02	; 2
    1cda:	31 f4       	brne	.+12     	; 0x1ce8 <gfx_mono_ssd1306_mask_byte+0x34>
    1cdc:	84 27       	eor	r24, r20
    1cde:	04 c0       	rjmp	.+8      	; 0x1ce8 <gfx_mono_ssd1306_mask_byte+0x34>
    1ce0:	84 2b       	or	r24, r20
    1ce2:	02 c0       	rjmp	.+4      	; 0x1ce8 <gfx_mono_ssd1306_mask_byte+0x34>
    1ce4:	40 95       	com	r20
    1ce6:	84 23       	and	r24, r20
    1ce8:	20 e0       	ldi	r18, 0x00	; 0
    1cea:	48 2f       	mov	r20, r24
    1cec:	60 2f       	mov	r22, r16
    1cee:	81 2f       	mov	r24, r17
    1cf0:	0f 90       	pop	r0
    1cf2:	0f 90       	pop	r0
    1cf4:	df 91       	pop	r29
    1cf6:	cf 91       	pop	r28
    1cf8:	1f 91       	pop	r17
    1cfa:	0f 91       	pop	r16
    1cfc:	0c 94 df 0d 	jmp	0x1bbe	; 0x1bbe <gfx_mono_ssd1306_put_byte>

00001d00 <sysclk_init>:
    1d00:	8f ef       	ldi	r24, 0xFF	; 255
    1d02:	80 93 70 00 	sts	0x0070, r24
    1d06:	80 93 71 00 	sts	0x0071, r24
    1d0a:	80 93 72 00 	sts	0x0072, r24
    1d0e:	80 93 73 00 	sts	0x0073, r24
    1d12:	80 93 74 00 	sts	0x0074, r24
    1d16:	80 93 75 00 	sts	0x0075, r24
    1d1a:	80 93 76 00 	sts	0x0076, r24
    1d1e:	08 95       	ret

00001d20 <sysclk_enable_module>:
    1d20:	9f b7       	in	r25, 0x3f	; 63
    1d22:	f8 94       	cli
    1d24:	e8 2f       	mov	r30, r24
    1d26:	f0 e0       	ldi	r31, 0x00	; 0
    1d28:	e0 59       	subi	r30, 0x90	; 144
    1d2a:	ff 4f       	sbci	r31, 0xFF	; 255
    1d2c:	60 95       	com	r22
    1d2e:	80 81       	ld	r24, Z
    1d30:	68 23       	and	r22, r24
    1d32:	60 83       	st	Z, r22
    1d34:	9f bf       	out	0x3f, r25	; 63
    1d36:	08 95       	ret

00001d38 <sysclk_disable_module>:
    1d38:	9f b7       	in	r25, 0x3f	; 63
    1d3a:	f8 94       	cli
    1d3c:	e8 2f       	mov	r30, r24
    1d3e:	f0 e0       	ldi	r31, 0x00	; 0
    1d40:	e0 59       	subi	r30, 0x90	; 144
    1d42:	ff 4f       	sbci	r31, 0xFF	; 255
    1d44:	80 81       	ld	r24, Z
    1d46:	68 2b       	or	r22, r24
    1d48:	60 83       	st	Z, r22
    1d4a:	9f bf       	out	0x3f, r25	; 63
    1d4c:	08 95       	ret

00001d4e <sysclk_enable_usb>:
    1d4e:	86 30       	cpi	r24, 0x06	; 6
    1d50:	11 f0       	breq	.+4      	; 0x1d56 <sysclk_enable_usb+0x8>
    1d52:	60 e0       	ldi	r22, 0x00	; 0
    1d54:	01 c0       	rjmp	.+2      	; 0x1d58 <sysclk_enable_usb+0xa>
    1d56:	68 e1       	ldi	r22, 0x18	; 24
    1d58:	80 91 51 00 	lds	r24, 0x0051
    1d5c:	81 ff       	sbrs	r24, 1
    1d5e:	09 c0       	rjmp	.+18     	; 0x1d72 <sysclk_enable_usb+0x24>
    1d60:	63 60       	ori	r22, 0x03	; 3
    1d62:	84 e4       	ldi	r24, 0x44	; 68
    1d64:	90 e0       	ldi	r25, 0x00	; 0
    1d66:	0e 94 db 04 	call	0x9b6	; 0x9b6 <ccp_write_io>
    1d6a:	60 e4       	ldi	r22, 0x40	; 64
    1d6c:	80 e0       	ldi	r24, 0x00	; 0
    1d6e:	0c 94 90 0e 	jmp	0x1d20	; 0x1d20 <sysclk_enable_module>
    1d72:	9f b7       	in	r25, 0x3f	; 63
    1d74:	f8 94       	cli
    1d76:	80 91 50 00 	lds	r24, 0x0050
    1d7a:	82 60       	ori	r24, 0x02	; 2
    1d7c:	80 93 50 00 	sts	0x0050, r24
    1d80:	9f bf       	out	0x3f, r25	; 63
    1d82:	80 91 51 00 	lds	r24, 0x0051
    1d86:	81 ff       	sbrs	r24, 1
    1d88:	fc cf       	rjmp	.-8      	; 0x1d82 <sysclk_enable_usb+0x34>
    1d8a:	ea cf       	rjmp	.-44     	; 0x1d60 <sysclk_enable_usb+0x12>

00001d8c <sysclk_disable_usb>:
    1d8c:	60 e4       	ldi	r22, 0x40	; 64
    1d8e:	80 e0       	ldi	r24, 0x00	; 0
    1d90:	0e 94 9c 0e 	call	0x1d38	; 0x1d38 <sysclk_disable_module>
    1d94:	60 e0       	ldi	r22, 0x00	; 0
    1d96:	84 e4       	ldi	r24, 0x44	; 68
    1d98:	90 e0       	ldi	r25, 0x00	; 0
    1d9a:	0c 94 db 04 	jmp	0x9b6	; 0x9b6 <ccp_write_io>

00001d9e <__portable_avr_delay_cycles>:
    1d9e:	61 50       	subi	r22, 0x01	; 1
    1da0:	71 09       	sbc	r23, r1
    1da2:	81 09       	sbc	r24, r1
    1da4:	91 09       	sbc	r25, r1
    1da6:	d9 f7       	brne	.-10     	; 0x1d9e <__portable_avr_delay_cycles>
    1da8:	08 95       	ret

00001daa <ssd1306_write_command>:
    1daa:	1f 93       	push	r17
    1dac:	cf 93       	push	r28
    1dae:	df 93       	push	r29
    1db0:	1f 92       	push	r1
    1db2:	cd b7       	in	r28, 0x3d	; 61
    1db4:	de b7       	in	r29, 0x3e	; 62
    1db6:	18 2f       	mov	r17, r24
    1db8:	88 e0       	ldi	r24, 0x08	; 8
    1dba:	89 83       	std	Y+1, r24	; 0x01
    1dbc:	be 01       	movw	r22, r28
    1dbe:	6f 5f       	subi	r22, 0xFF	; 255
    1dc0:	7f 4f       	sbci	r23, 0xFF	; 255
    1dc2:	80 ec       	ldi	r24, 0xC0	; 192
    1dc4:	98 e0       	ldi	r25, 0x08	; 8
    1dc6:	0e 94 dc 08 	call	0x11b8	; 0x11b8 <spi_select_device>
    1dca:	82 e0       	ldi	r24, 0x02	; 2
    1dcc:	80 93 26 06 	sts	0x0626, r24
    1dd0:	10 93 c3 08 	sts	0x08C3, r17
    1dd4:	63 e0       	ldi	r22, 0x03	; 3
    1dd6:	70 e0       	ldi	r23, 0x00	; 0
    1dd8:	80 e0       	ldi	r24, 0x00	; 0
    1dda:	90 e0       	ldi	r25, 0x00	; 0
    1ddc:	0e 94 cf 0e 	call	0x1d9e	; 0x1d9e <__portable_avr_delay_cycles>
    1de0:	be 01       	movw	r22, r28
    1de2:	6f 5f       	subi	r22, 0xFF	; 255
    1de4:	7f 4f       	sbci	r23, 0xFF	; 255
    1de6:	80 ec       	ldi	r24, 0xC0	; 192
    1de8:	98 e0       	ldi	r25, 0x08	; 8
    1dea:	0e 94 f2 08 	call	0x11e4	; 0x11e4 <spi_deselect_device>
    1dee:	0f 90       	pop	r0
    1df0:	df 91       	pop	r29
    1df2:	cf 91       	pop	r28
    1df4:	1f 91       	pop	r17
    1df6:	08 95       	ret

00001df8 <ssd1306_write_data>:
    1df8:	1f 93       	push	r17
    1dfa:	cf 93       	push	r28
    1dfc:	df 93       	push	r29
    1dfe:	1f 92       	push	r1
    1e00:	cd b7       	in	r28, 0x3d	; 61
    1e02:	de b7       	in	r29, 0x3e	; 62
    1e04:	18 2f       	mov	r17, r24
    1e06:	88 e0       	ldi	r24, 0x08	; 8
    1e08:	89 83       	std	Y+1, r24	; 0x01
    1e0a:	be 01       	movw	r22, r28
    1e0c:	6f 5f       	subi	r22, 0xFF	; 255
    1e0e:	7f 4f       	sbci	r23, 0xFF	; 255
    1e10:	80 ec       	ldi	r24, 0xC0	; 192
    1e12:	98 e0       	ldi	r25, 0x08	; 8
    1e14:	0e 94 dc 08 	call	0x11b8	; 0x11b8 <spi_select_device>
    1e18:	82 e0       	ldi	r24, 0x02	; 2
    1e1a:	80 93 25 06 	sts	0x0625, r24
    1e1e:	10 93 c3 08 	sts	0x08C3, r17
    1e22:	63 e0       	ldi	r22, 0x03	; 3
    1e24:	70 e0       	ldi	r23, 0x00	; 0
    1e26:	80 e0       	ldi	r24, 0x00	; 0
    1e28:	90 e0       	ldi	r25, 0x00	; 0
    1e2a:	0e 94 cf 0e 	call	0x1d9e	; 0x1d9e <__portable_avr_delay_cycles>
    1e2e:	be 01       	movw	r22, r28
    1e30:	6f 5f       	subi	r22, 0xFF	; 255
    1e32:	7f 4f       	sbci	r23, 0xFF	; 255
    1e34:	80 ec       	ldi	r24, 0xC0	; 192
    1e36:	98 e0       	ldi	r25, 0x08	; 8
    1e38:	0e 94 f2 08 	call	0x11e4	; 0x11e4 <spi_deselect_device>
    1e3c:	0f 90       	pop	r0
    1e3e:	df 91       	pop	r29
    1e40:	cf 91       	pop	r28
    1e42:	1f 91       	pop	r17
    1e44:	08 95       	ret

00001e46 <ssd1306_init>:
    1e46:	cf 92       	push	r12
    1e48:	df 92       	push	r13
    1e4a:	ef 92       	push	r14
    1e4c:	ff 92       	push	r15
    1e4e:	0f 93       	push	r16
    1e50:	1f 93       	push	r17
    1e52:	cf 93       	push	r28
    1e54:	df 93       	push	r29
    1e56:	1f 92       	push	r1
    1e58:	cd b7       	in	r28, 0x3d	; 61
    1e5a:	de b7       	in	r29, 0x3e	; 62
    1e5c:	14 e0       	ldi	r17, 0x04	; 4
    1e5e:	10 93 26 06 	sts	0x0626, r17
    1e62:	61 e2       	ldi	r22, 0x21	; 33
    1e64:	70 e0       	ldi	r23, 0x00	; 0
    1e66:	80 e0       	ldi	r24, 0x00	; 0
    1e68:	90 e0       	ldi	r25, 0x00	; 0
    1e6a:	0e 94 cf 0e 	call	0x1d9e	; 0x1d9e <__portable_avr_delay_cycles>
    1e6e:	10 93 25 06 	sts	0x0625, r17
    1e72:	61 e2       	ldi	r22, 0x21	; 33
    1e74:	70 e0       	ldi	r23, 0x00	; 0
    1e76:	80 e0       	ldi	r24, 0x00	; 0
    1e78:	90 e0       	ldi	r25, 0x00	; 0
    1e7a:	0e 94 cf 0e 	call	0x1d9e	; 0x1d9e <__portable_avr_delay_cycles>
    1e7e:	88 e0       	ldi	r24, 0x08	; 8
    1e80:	89 83       	std	Y+1, r24	; 0x01
    1e82:	80 ec       	ldi	r24, 0xC0	; 192
    1e84:	98 e0       	ldi	r25, 0x08	; 8
    1e86:	0e 94 72 08 	call	0x10e4	; 0x10e4 <spi_master_init>
    1e8a:	c1 2c       	mov	r12, r1
    1e8c:	d1 2c       	mov	r13, r1
    1e8e:	76 01       	movw	r14, r12
    1e90:	00 e4       	ldi	r16, 0x40	; 64
    1e92:	12 e4       	ldi	r17, 0x42	; 66
    1e94:	2f e0       	ldi	r18, 0x0F	; 15
    1e96:	30 e0       	ldi	r19, 0x00	; 0
    1e98:	40 e0       	ldi	r20, 0x00	; 0
    1e9a:	be 01       	movw	r22, r28
    1e9c:	6f 5f       	subi	r22, 0xFF	; 255
    1e9e:	7f 4f       	sbci	r23, 0xFF	; 255
    1ea0:	80 ec       	ldi	r24, 0xC0	; 192
    1ea2:	98 e0       	ldi	r25, 0x08	; 8
    1ea4:	0e 94 91 08 	call	0x1122	; 0x1122 <spi_master_setup_device>
    1ea8:	80 91 c0 08 	lds	r24, 0x08C0
    1eac:	80 64       	ori	r24, 0x40	; 64
    1eae:	80 93 c0 08 	sts	0x08C0, r24
    1eb2:	8e ea       	ldi	r24, 0xAE	; 174
    1eb4:	0e 94 d5 0e 	call	0x1daa	; 0x1daa <ssd1306_write_command>
    1eb8:	85 ed       	ldi	r24, 0xD5	; 213
    1eba:	0e 94 d5 0e 	call	0x1daa	; 0x1daa <ssd1306_write_command>
    1ebe:	80 ea       	ldi	r24, 0xA0	; 160
    1ec0:	0e 94 d5 0e 	call	0x1daa	; 0x1daa <ssd1306_write_command>
    1ec4:	88 ea       	ldi	r24, 0xA8	; 168
    1ec6:	0e 94 d5 0e 	call	0x1daa	; 0x1daa <ssd1306_write_command>
    1eca:	8f e3       	ldi	r24, 0x3F	; 63
    1ecc:	0e 94 d5 0e 	call	0x1daa	; 0x1daa <ssd1306_write_command>
    1ed0:	83 ed       	ldi	r24, 0xD3	; 211
    1ed2:	0e 94 d5 0e 	call	0x1daa	; 0x1daa <ssd1306_write_command>
    1ed6:	80 e0       	ldi	r24, 0x00	; 0
    1ed8:	0e 94 d5 0e 	call	0x1daa	; 0x1daa <ssd1306_write_command>
    1edc:	80 e4       	ldi	r24, 0x40	; 64
    1ede:	0e 94 d5 0e 	call	0x1daa	; 0x1daa <ssd1306_write_command>
    1ee2:	81 ea       	ldi	r24, 0xA1	; 161
    1ee4:	0e 94 d5 0e 	call	0x1daa	; 0x1daa <ssd1306_write_command>
    1ee8:	88 ec       	ldi	r24, 0xC8	; 200
    1eea:	0e 94 d5 0e 	call	0x1daa	; 0x1daa <ssd1306_write_command>
    1eee:	8a ed       	ldi	r24, 0xDA	; 218
    1ef0:	0e 94 d5 0e 	call	0x1daa	; 0x1daa <ssd1306_write_command>
    1ef4:	82 e1       	ldi	r24, 0x12	; 18
    1ef6:	0e 94 d5 0e 	call	0x1daa	; 0x1daa <ssd1306_write_command>
    1efa:	81 e8       	ldi	r24, 0x81	; 129
    1efc:	0e 94 d5 0e 	call	0x1daa	; 0x1daa <ssd1306_write_command>
    1f00:	83 ee       	ldi	r24, 0xE3	; 227
    1f02:	0e 94 d5 0e 	call	0x1daa	; 0x1daa <ssd1306_write_command>
    1f06:	89 ed       	ldi	r24, 0xD9	; 217
    1f08:	0e 94 d5 0e 	call	0x1daa	; 0x1daa <ssd1306_write_command>
    1f0c:	89 e1       	ldi	r24, 0x19	; 25
    1f0e:	0e 94 d5 0e 	call	0x1daa	; 0x1daa <ssd1306_write_command>
    1f12:	8b ed       	ldi	r24, 0xDB	; 219
    1f14:	0e 94 d5 0e 	call	0x1daa	; 0x1daa <ssd1306_write_command>
    1f18:	8c e3       	ldi	r24, 0x3C	; 60
    1f1a:	0e 94 d5 0e 	call	0x1daa	; 0x1daa <ssd1306_write_command>
    1f1e:	84 ea       	ldi	r24, 0xA4	; 164
    1f20:	0e 94 d5 0e 	call	0x1daa	; 0x1daa <ssd1306_write_command>
    1f24:	86 ea       	ldi	r24, 0xA6	; 166
    1f26:	0e 94 d5 0e 	call	0x1daa	; 0x1daa <ssd1306_write_command>
    1f2a:	10 e0       	ldi	r17, 0x00	; 0
    1f2c:	81 2f       	mov	r24, r17
    1f2e:	80 6b       	ori	r24, 0xB0	; 176
    1f30:	0e 94 d5 0e 	call	0x1daa	; 0x1daa <ssd1306_write_command>
    1f34:	80 e1       	ldi	r24, 0x10	; 16
    1f36:	0e 94 d5 0e 	call	0x1daa	; 0x1daa <ssd1306_write_command>
    1f3a:	80 e0       	ldi	r24, 0x00	; 0
    1f3c:	0e 94 d5 0e 	call	0x1daa	; 0x1daa <ssd1306_write_command>
    1f40:	00 e0       	ldi	r16, 0x00	; 0
    1f42:	80 e0       	ldi	r24, 0x00	; 0
    1f44:	0e 94 fc 0e 	call	0x1df8	; 0x1df8 <ssd1306_write_data>
    1f48:	0f 5f       	subi	r16, 0xFF	; 255
    1f4a:	00 38       	cpi	r16, 0x80	; 128
    1f4c:	d1 f7       	brne	.-12     	; 0x1f42 <ssd1306_init+0xfc>
    1f4e:	1f 5f       	subi	r17, 0xFF	; 255
    1f50:	18 30       	cpi	r17, 0x08	; 8
    1f52:	61 f7       	brne	.-40     	; 0x1f2c <ssd1306_init+0xe6>
    1f54:	80 e2       	ldi	r24, 0x20	; 32
    1f56:	80 93 85 06 	sts	0x0685, r24
    1f5a:	65 e0       	ldi	r22, 0x05	; 5
    1f5c:	7d e0       	ldi	r23, 0x0D	; 13
    1f5e:	80 e0       	ldi	r24, 0x00	; 0
    1f60:	90 e0       	ldi	r25, 0x00	; 0
    1f62:	0e 94 cf 0e 	call	0x1d9e	; 0x1d9e <__portable_avr_delay_cycles>
    1f66:	8f ea       	ldi	r24, 0xAF	; 175
    1f68:	0e 94 d5 0e 	call	0x1daa	; 0x1daa <ssd1306_write_command>
    1f6c:	65 e3       	ldi	r22, 0x35	; 53
    1f6e:	72 e8       	ldi	r23, 0x82	; 130
    1f70:	80 e0       	ldi	r24, 0x00	; 0
    1f72:	90 e0       	ldi	r25, 0x00	; 0
    1f74:	0e 94 cf 0e 	call	0x1d9e	; 0x1d9e <__portable_avr_delay_cycles>
    1f78:	0f 90       	pop	r0
    1f7a:	df 91       	pop	r29
    1f7c:	cf 91       	pop	r28
    1f7e:	1f 91       	pop	r17
    1f80:	0f 91       	pop	r16
    1f82:	ff 90       	pop	r15
    1f84:	ef 90       	pop	r14
    1f86:	df 90       	pop	r13
    1f88:	cf 90       	pop	r12
    1f8a:	08 95       	ret

00001f8c <ssd1306_write_text>:
    1f8c:	ef 92       	push	r14
    1f8e:	ff 92       	push	r15
    1f90:	0f 93       	push	r16
    1f92:	1f 93       	push	r17
    1f94:	cf 93       	push	r28
    1f96:	8c 01       	movw	r16, r24
    1f98:	d8 01       	movw	r26, r16
    1f9a:	ed 91       	ld	r30, X+
    1f9c:	8d 01       	movw	r16, r26
    1f9e:	ee 23       	and	r30, r30
    1fa0:	d1 f0       	breq	.+52     	; 0x1fd6 <ssd1306_write_text+0x4a>
    1fa2:	ef 37       	cpi	r30, 0x7F	; 127
    1fa4:	c8 f7       	brcc	.-14     	; 0x1f98 <ssd1306_write_text+0xc>
    1fa6:	f0 e0       	ldi	r31, 0x00	; 0
    1fa8:	ee 0f       	add	r30, r30
    1faa:	ff 1f       	adc	r31, r31
    1fac:	ef 56       	subi	r30, 0x6F	; 111
    1fae:	fe 4d       	sbci	r31, 0xDE	; 222
    1fb0:	e0 80       	ld	r14, Z
    1fb2:	f1 80       	ldd	r15, Z+1	; 0x01
    1fb4:	c1 e0       	ldi	r28, 0x01	; 1
    1fb6:	d7 01       	movw	r26, r14
    1fb8:	8c 91       	ld	r24, X
    1fba:	8c 17       	cp	r24, r28
    1fbc:	40 f0       	brcs	.+16     	; 0x1fce <ssd1306_write_text+0x42>
    1fbe:	f7 01       	movw	r30, r14
    1fc0:	ec 0f       	add	r30, r28
    1fc2:	f1 1d       	adc	r31, r1
    1fc4:	80 81       	ld	r24, Z
    1fc6:	0e 94 fc 0e 	call	0x1df8	; 0x1df8 <ssd1306_write_data>
    1fca:	cf 5f       	subi	r28, 0xFF	; 255
    1fcc:	f4 cf       	rjmp	.-24     	; 0x1fb6 <ssd1306_write_text+0x2a>
    1fce:	80 e0       	ldi	r24, 0x00	; 0
    1fd0:	0e 94 fc 0e 	call	0x1df8	; 0x1df8 <ssd1306_write_data>
    1fd4:	e1 cf       	rjmp	.-62     	; 0x1f98 <ssd1306_write_text+0xc>
    1fd6:	cf 91       	pop	r28
    1fd8:	1f 91       	pop	r17
    1fda:	0f 91       	pop	r16
    1fdc:	ff 90       	pop	r15
    1fde:	ef 90       	pop	r14
    1fe0:	08 95       	ret

00001fe2 <__portable_avr_delay_cycles>:
    1fe2:	61 50       	subi	r22, 0x01	; 1
    1fe4:	71 09       	sbc	r23, r1
    1fe6:	81 09       	sbc	r24, r1
    1fe8:	91 09       	sbc	r25, r1
    1fea:	d9 f7       	brne	.-10     	; 0x1fe2 <__portable_avr_delay_cycles>
    1fec:	08 95       	ret

00001fee <ssd1306_write_command>:
    1fee:	1f 93       	push	r17
    1ff0:	cf 93       	push	r28
    1ff2:	df 93       	push	r29
    1ff4:	1f 92       	push	r1
    1ff6:	cd b7       	in	r28, 0x3d	; 61
    1ff8:	de b7       	in	r29, 0x3e	; 62
    1ffa:	18 2f       	mov	r17, r24
    1ffc:	88 e0       	ldi	r24, 0x08	; 8
    1ffe:	89 83       	std	Y+1, r24	; 0x01
    2000:	be 01       	movw	r22, r28
    2002:	6f 5f       	subi	r22, 0xFF	; 255
    2004:	7f 4f       	sbci	r23, 0xFF	; 255
    2006:	80 ec       	ldi	r24, 0xC0	; 192
    2008:	98 e0       	ldi	r25, 0x08	; 8
    200a:	0e 94 dc 08 	call	0x11b8	; 0x11b8 <spi_select_device>
    200e:	82 e0       	ldi	r24, 0x02	; 2
    2010:	80 93 26 06 	sts	0x0626, r24
    2014:	10 93 c3 08 	sts	0x08C3, r17
    2018:	63 e0       	ldi	r22, 0x03	; 3
    201a:	70 e0       	ldi	r23, 0x00	; 0
    201c:	80 e0       	ldi	r24, 0x00	; 0
    201e:	90 e0       	ldi	r25, 0x00	; 0
    2020:	0e 94 f1 0f 	call	0x1fe2	; 0x1fe2 <__portable_avr_delay_cycles>
    2024:	be 01       	movw	r22, r28
    2026:	6f 5f       	subi	r22, 0xFF	; 255
    2028:	7f 4f       	sbci	r23, 0xFF	; 255
    202a:	80 ec       	ldi	r24, 0xC0	; 192
    202c:	98 e0       	ldi	r25, 0x08	; 8
    202e:	0e 94 f2 08 	call	0x11e4	; 0x11e4 <spi_deselect_device>
    2032:	0f 90       	pop	r0
    2034:	df 91       	pop	r29
    2036:	cf 91       	pop	r28
    2038:	1f 91       	pop	r17
    203a:	08 95       	ret

0000203c <ssd1306_clear>:
    203c:	ef 92       	push	r14
    203e:	ff 92       	push	r15
    2040:	0f 93       	push	r16
    2042:	1f 93       	push	r17
    2044:	cf 93       	push	r28
    2046:	df 93       	push	r29
    2048:	1f 92       	push	r1
    204a:	cd b7       	in	r28, 0x3d	; 61
    204c:	de b7       	in	r29, 0x3e	; 62
    204e:	10 e0       	ldi	r17, 0x00	; 0
    2050:	82 e0       	ldi	r24, 0x02	; 2
    2052:	f8 2e       	mov	r15, r24
    2054:	98 e0       	ldi	r25, 0x08	; 8
    2056:	e9 2e       	mov	r14, r25
    2058:	81 2f       	mov	r24, r17
    205a:	80 6b       	ori	r24, 0xB0	; 176
    205c:	0e 94 f7 0f 	call	0x1fee	; 0x1fee <ssd1306_write_command>
    2060:	80 e1       	ldi	r24, 0x10	; 16
    2062:	0e 94 f7 0f 	call	0x1fee	; 0x1fee <ssd1306_write_command>
    2066:	80 e0       	ldi	r24, 0x00	; 0
    2068:	0e 94 f7 0f 	call	0x1fee	; 0x1fee <ssd1306_write_command>
    206c:	00 e0       	ldi	r16, 0x00	; 0
    206e:	e9 82       	std	Y+1, r14	; 0x01
    2070:	be 01       	movw	r22, r28
    2072:	6f 5f       	subi	r22, 0xFF	; 255
    2074:	7f 4f       	sbci	r23, 0xFF	; 255
    2076:	80 ec       	ldi	r24, 0xC0	; 192
    2078:	98 e0       	ldi	r25, 0x08	; 8
    207a:	0e 94 dc 08 	call	0x11b8	; 0x11b8 <spi_select_device>
    207e:	f0 92 25 06 	sts	0x0625, r15
    2082:	10 92 c3 08 	sts	0x08C3, r1
    2086:	63 e0       	ldi	r22, 0x03	; 3
    2088:	70 e0       	ldi	r23, 0x00	; 0
    208a:	80 e0       	ldi	r24, 0x00	; 0
    208c:	90 e0       	ldi	r25, 0x00	; 0
    208e:	0e 94 f1 0f 	call	0x1fe2	; 0x1fe2 <__portable_avr_delay_cycles>
    2092:	be 01       	movw	r22, r28
    2094:	6f 5f       	subi	r22, 0xFF	; 255
    2096:	7f 4f       	sbci	r23, 0xFF	; 255
    2098:	80 ec       	ldi	r24, 0xC0	; 192
    209a:	98 e0       	ldi	r25, 0x08	; 8
    209c:	0e 94 f2 08 	call	0x11e4	; 0x11e4 <spi_deselect_device>
    20a0:	0f 5f       	subi	r16, 0xFF	; 255
    20a2:	00 38       	cpi	r16, 0x80	; 128
    20a4:	21 f7       	brne	.-56     	; 0x206e <ssd1306_clear+0x32>
    20a6:	1f 5f       	subi	r17, 0xFF	; 255
    20a8:	18 30       	cpi	r17, 0x08	; 8
    20aa:	b1 f6       	brne	.-84     	; 0x2058 <ssd1306_clear+0x1c>
    20ac:	0f 90       	pop	r0
    20ae:	df 91       	pop	r29
    20b0:	cf 91       	pop	r28
    20b2:	1f 91       	pop	r17
    20b4:	0f 91       	pop	r16
    20b6:	ff 90       	pop	r15
    20b8:	ef 90       	pop	r14
    20ba:	08 95       	ret

000020bc <InitGlobalVars>:
    20bc:	87 ee       	ldi	r24, 0xE7	; 231
    20be:	93 e0       	ldi	r25, 0x03	; 3
    20c0:	80 93 b7 26 	sts	0x26B7, r24
    20c4:	90 93 b8 26 	sts	0x26B8, r25
    20c8:	10 92 ba 26 	sts	0x26BA, r1
    20cc:	10 92 bb 26 	sts	0x26BB, r1
    20d0:	10 92 b9 26 	sts	0x26B9, r1
    20d4:	08 95       	ret

000020d6 <changeScreen>:
    20d6:	88 23       	and	r24, r24
    20d8:	39 f0       	breq	.+14     	; 0x20e8 <changeScreen+0x12>
    20da:	81 30       	cpi	r24, 0x01	; 1
    20dc:	19 f0       	breq	.+6      	; 0x20e4 <changeScreen+0xe>
    20de:	80 e4       	ldi	r24, 0x40	; 64
    20e0:	80 93 87 06 	sts	0x0687, r24
    20e4:	80 e0       	ldi	r24, 0x00	; 0
    20e6:	08 95       	ret
    20e8:	81 e0       	ldi	r24, 0x01	; 1
    20ea:	08 95       	ret

000020ec <printLogo>:
    20ec:	cf 93       	push	r28
    20ee:	df 93       	push	r29
    20f0:	cd b7       	in	r28, 0x3d	; 61
    20f2:	de b7       	in	r29, 0x3e	; 62
    20f4:	25 97       	sbiw	r28, 0x05	; 5
    20f6:	cd bf       	out	0x3d, r28	; 61
    20f8:	de bf       	out	0x3e, r29	; 62
    20fa:	49 83       	std	Y+1, r20	; 0x01
    20fc:	5a 83       	std	Y+2, r21	; 0x02
    20fe:	6b 83       	std	Y+3, r22	; 0x03
    2100:	7c 83       	std	Y+4, r23	; 0x04
    2102:	8d 83       	std	Y+5, r24	; 0x05
    2104:	48 e0       	ldi	r20, 0x08	; 8
    2106:	60 e0       	ldi	r22, 0x00	; 0
    2108:	ce 01       	movw	r24, r28
    210a:	01 96       	adiw	r24, 0x01	; 1
    210c:	0e 94 cb 0c 	call	0x1996	; 0x1996 <gfx_mono_generic_put_bitmap>
    2110:	25 96       	adiw	r28, 0x05	; 5
    2112:	cd bf       	out	0x3d, r28	; 61
    2114:	de bf       	out	0x3e, r29	; 62
    2116:	df 91       	pop	r29
    2118:	cf 91       	pop	r28
    211a:	08 95       	ret

0000211c <writeText>:
    211c:	0f 93       	push	r16
    211e:	1f 93       	push	r17
    2120:	cf 93       	push	r28
    2122:	8c 01       	movw	r16, r24
    2124:	c4 2f       	mov	r28, r20
    2126:	86 2f       	mov	r24, r22
    2128:	87 70       	andi	r24, 0x07	; 7
    212a:	80 6b       	ori	r24, 0xB0	; 176
    212c:	0e 94 f7 0f 	call	0x1fee	; 0x1fee <ssd1306_write_command>
    2130:	9c 2f       	mov	r25, r28
    2132:	9f 77       	andi	r25, 0x7F	; 127
    2134:	89 2f       	mov	r24, r25
    2136:	82 95       	swap	r24
    2138:	8f 70       	andi	r24, 0x0F	; 15
    213a:	80 61       	ori	r24, 0x10	; 16
    213c:	0e 94 f7 0f 	call	0x1fee	; 0x1fee <ssd1306_write_command>
    2140:	8c 2f       	mov	r24, r28
    2142:	8f 70       	andi	r24, 0x0F	; 15
    2144:	0e 94 f7 0f 	call	0x1fee	; 0x1fee <ssd1306_write_command>
    2148:	c8 01       	movw	r24, r16
    214a:	cf 91       	pop	r28
    214c:	1f 91       	pop	r17
    214e:	0f 91       	pop	r16
    2150:	0c 94 c6 0f 	jmp	0x1f8c	; 0x1f8c <ssd1306_write_text>

00002154 <printPower>:
    2154:	cf 92       	push	r12
    2156:	df 92       	push	r13
    2158:	ef 92       	push	r14
    215a:	ff 92       	push	r15
    215c:	cf 93       	push	r28
    215e:	df 93       	push	r29
    2160:	cd b7       	in	r28, 0x3d	; 61
    2162:	de b7       	in	r29, 0x3e	; 62
    2164:	27 97       	sbiw	r28, 0x07	; 7
    2166:	cd bf       	out	0x3d, r28	; 61
    2168:	de bf       	out	0x3e, r29	; 62
    216a:	28 ee       	ldi	r18, 0xE8	; 232
    216c:	33 e0       	ldi	r19, 0x03	; 3
    216e:	60 e0       	ldi	r22, 0x00	; 0
    2170:	70 e0       	ldi	r23, 0x00	; 0
    2172:	cb 01       	movw	r24, r22
    2174:	58 e0       	ldi	r21, 0x08	; 8
    2176:	ef b7       	in	r30, 0x3f	; 63
    2178:	f8 94       	cli
    217a:	40 91 00 02 	lds	r20, 0x0200
    217e:	44 60       	ori	r20, 0x04	; 4
    2180:	40 93 00 02 	sts	0x0200, r20
    2184:	ef bf       	out	0x3f, r30	; 63
    2186:	50 93 86 06 	sts	0x0686, r21
    218a:	50 93 85 06 	sts	0x0685, r21
    218e:	c0 90 24 02 	lds	r12, 0x0224
    2192:	d0 90 25 02 	lds	r13, 0x0225
    2196:	ee 24       	eor	r14, r14
    2198:	d7 fc       	sbrc	r13, 7
    219a:	e0 94       	com	r14
    219c:	fe 2c       	mov	r15, r14
    219e:	6c 0d       	add	r22, r12
    21a0:	7d 1d       	adc	r23, r13
    21a2:	8e 1d       	adc	r24, r14
    21a4:	9f 1d       	adc	r25, r15
    21a6:	21 50       	subi	r18, 0x01	; 1
    21a8:	31 09       	sbc	r19, r1
    21aa:	29 f7       	brne	.-54     	; 0x2176 <printPower+0x22>
    21ac:	28 ee       	ldi	r18, 0xE8	; 232
    21ae:	33 e0       	ldi	r19, 0x03	; 3
    21b0:	40 e0       	ldi	r20, 0x00	; 0
    21b2:	50 e0       	ldi	r21, 0x00	; 0
    21b4:	0e 94 c0 11 	call	0x2380	; 0x2380 <__divmodsi4>
    21b8:	ca 01       	movw	r24, r20
    21ba:	b9 01       	movw	r22, r18
    21bc:	0e 94 12 12 	call	0x2424	; 0x2424 <__floatsisf>
    21c0:	0e 94 76 12 	call	0x24ec	; 0x24ec <round>
    21c4:	0e 94 df 11 	call	0x23be	; 0x23be <__fixsfsi>
    21c8:	dc 01       	movw	r26, r24
    21ca:	cb 01       	movw	r24, r22
    21cc:	7c 01       	movw	r14, r24
    21ce:	4a e0       	ldi	r20, 0x0A	; 10
    21d0:	62 eb       	ldi	r22, 0xB2	; 178
    21d2:	76 e2       	ldi	r23, 0x26	; 38
    21d4:	0e 94 cf 12 	call	0x259e	; 0x259e <__itoa_ncheck>
    21d8:	80 91 bb 26 	lds	r24, 0x26BB
    21dc:	88 23       	and	r24, r24
    21de:	59 f0       	breq	.+22     	; 0x21f6 <printPower+0xa2>
    21e0:	0e 94 1e 10 	call	0x203c	; 0x203c <ssd1306_clear>
    21e4:	49 e1       	ldi	r20, 0x19	; 25
    21e6:	50 e0       	ldi	r21, 0x00	; 0
    21e8:	61 e0       	ldi	r22, 0x01	; 1
    21ea:	70 e0       	ldi	r23, 0x00	; 0
    21ec:	8f e8       	ldi	r24, 0x8F	; 143
    21ee:	94 e2       	ldi	r25, 0x24	; 36
    21f0:	0e 94 8e 10 	call	0x211c	; 0x211c <writeText>
    21f4:	05 c0       	rjmp	.+10     	; 0x2200 <printPower+0xac>
    21f6:	88 ee       	ldi	r24, 0xE8	; 232
    21f8:	e8 16       	cp	r14, r24
    21fa:	83 e0       	ldi	r24, 0x03	; 3
    21fc:	f8 06       	cpc	r15, r24
    21fe:	99 f0       	breq	.+38     	; 0x2226 <printPower+0xd2>
    2200:	62 eb       	ldi	r22, 0xB2	; 178
    2202:	76 e2       	ldi	r23, 0x26	; 38
    2204:	ce 01       	movw	r24, r28
    2206:	01 96       	adiw	r24, 0x01	; 1
    2208:	0e 94 c8 12 	call	0x2590	; 0x2590 <strcpy>
    220c:	80 e2       	ldi	r24, 0x20	; 32
    220e:	8c 83       	std	Y+4, r24	; 0x04
    2210:	87 e5       	ldi	r24, 0x57	; 87
    2212:	8d 83       	std	Y+5, r24	; 0x05
    2214:	1e 82       	std	Y+6, r1	; 0x06
    2216:	47 e3       	ldi	r20, 0x37	; 55
    2218:	50 e0       	ldi	r21, 0x00	; 0
    221a:	63 e0       	ldi	r22, 0x03	; 3
    221c:	70 e0       	ldi	r23, 0x00	; 0
    221e:	ce 01       	movw	r24, r28
    2220:	01 96       	adiw	r24, 0x01	; 1
    2222:	0e 94 8e 10 	call	0x211c	; 0x211c <writeText>
    2226:	27 96       	adiw	r28, 0x07	; 7
    2228:	cd bf       	out	0x3d, r28	; 61
    222a:	de bf       	out	0x3e, r29	; 62
    222c:	df 91       	pop	r29
    222e:	cf 91       	pop	r28
    2230:	ff 90       	pop	r15
    2232:	ef 90       	pop	r14
    2234:	df 90       	pop	r13
    2236:	cf 90       	pop	r12
    2238:	08 95       	ret

0000223a <main>:
    223a:	cf 93       	push	r28
    223c:	df 93       	push	r29
    223e:	cd b7       	in	r28, 0x3d	; 61
    2240:	de b7       	in	r29, 0x3e	; 62
    2242:	2b 97       	sbiw	r28, 0x0b	; 11
    2244:	cd bf       	out	0x3d, r28	; 61
    2246:	de bf       	out	0x3e, r29	; 62
    2248:	0e 94 2c 08 	call	0x1058	; 0x1058 <board_init>
    224c:	0e 94 80 0e 	call	0x1d00	; 0x1d00 <sysclk_init>
    2250:	0e 94 00 0e 	call	0x1c00	; 0x1c00 <gfx_mono_ssd1306_init>
    2254:	be 01       	movw	r22, r28
    2256:	6f 5f       	subi	r22, 0xFF	; 255
    2258:	7f 4f       	sbci	r23, 0xFF	; 255
    225a:	80 e0       	ldi	r24, 0x00	; 0
    225c:	92 e0       	ldi	r25, 0x02	; 2
    225e:	0e 94 cf 06 	call	0xd9e	; 0xd9e <adc_read_configuration>
    2262:	ae 01       	movw	r20, r28
    2264:	48 5f       	subi	r20, 0xF8	; 248
    2266:	5f 4f       	sbci	r21, 0xFF	; 255
    2268:	61 e0       	ldi	r22, 0x01	; 1
    226a:	80 e0       	ldi	r24, 0x00	; 0
    226c:	92 e0       	ldi	r25, 0x02	; 2
    226e:	0e 94 3f 07 	call	0xe7e	; 0xe7e <adcch_read_configuration>
    2272:	8a 81       	ldd	r24, Y+2	; 0x02
    2274:	9b 81       	ldd	r25, Y+3	; 0x03
    2276:	9f 78       	andi	r25, 0x8F	; 143
    2278:	90 61       	ori	r25, 0x10	; 16
    227a:	9b 83       	std	Y+3, r25	; 0x03
    227c:	81 7e       	andi	r24, 0xE1	; 225
    227e:	80 61       	ori	r24, 0x10	; 16
    2280:	8a 83       	std	Y+2, r24	; 0x02
    2282:	81 e0       	ldi	r24, 0x01	; 1
    2284:	8c 83       	std	Y+4, r24	; 0x04
    2286:	83 e0       	ldi	r24, 0x03	; 3
    2288:	8d 83       	std	Y+5, r24	; 0x05
    228a:	82 e0       	ldi	r24, 0x02	; 2
    228c:	88 87       	std	Y+8, r24	; 0x08
    228e:	88 e0       	ldi	r24, 0x08	; 8
    2290:	89 87       	std	Y+9, r24	; 0x09
    2292:	be 01       	movw	r22, r28
    2294:	6f 5f       	subi	r22, 0xFF	; 255
    2296:	7f 4f       	sbci	r23, 0xFF	; 255
    2298:	80 e0       	ldi	r24, 0x00	; 0
    229a:	92 e0       	ldi	r25, 0x02	; 2
    229c:	0e 94 71 06 	call	0xce2	; 0xce2 <adc_write_configuration>
    22a0:	ae 01       	movw	r20, r28
    22a2:	48 5f       	subi	r20, 0xF8	; 248
    22a4:	5f 4f       	sbci	r21, 0xFF	; 255
    22a6:	61 e0       	ldi	r22, 0x01	; 1
    22a8:	80 e0       	ldi	r24, 0x00	; 0
    22aa:	92 e0       	ldi	r25, 0x02	; 2
    22ac:	0e 94 f4 06 	call	0xde8	; 0xde8 <adcch_write_configuration>
    22b0:	87 e0       	ldi	r24, 0x07	; 7
    22b2:	80 93 a2 00 	sts	0x00A2, r24
    22b6:	0e 94 5e 10 	call	0x20bc	; 0x20bc <InitGlobalVars>
    22ba:	1b 82       	std	Y+3, r1	; 0x03
    22bc:	80 e8       	ldi	r24, 0x80	; 128
    22be:	89 83       	std	Y+1, r24	; 0x01
    22c0:	80 e2       	ldi	r24, 0x20	; 32
    22c2:	8a 83       	std	Y+2, r24	; 0x02
    22c4:	8f e8       	ldi	r24, 0x8F	; 143
    22c6:	92 e2       	ldi	r25, 0x22	; 34
    22c8:	8c 83       	std	Y+4, r24	; 0x04
    22ca:	9d 83       	std	Y+5, r25	; 0x05
    22cc:	80 e0       	ldi	r24, 0x00	; 0
    22ce:	92 e0       	ldi	r25, 0x02	; 2
    22d0:	0e 94 da 07 	call	0xfb4	; 0xfb4 <adc_enable>
    22d4:	00 e0       	ldi	r16, 0x00	; 0
    22d6:	10 e0       	ldi	r17, 0x00	; 0
    22d8:	ff 24       	eor	r15, r15
    22da:	f3 94       	inc	r15
    22dc:	80 91 a8 06 	lds	r24, 0x06A8
    22e0:	86 fb       	bst	r24, 6
    22e2:	88 27       	eor	r24, r24
    22e4:	80 f9       	bld	r24, 0
    22e6:	80 93 bc 26 	sts	0x26BC, r24
    22ea:	90 91 ba 26 	lds	r25, 0x26BA
    22ee:	99 23       	and	r25, r25
    22f0:	31 f0       	breq	.+12     	; 0x22fe <main+0xc4>
    22f2:	81 11       	cpse	r24, r1
    22f4:	04 c0       	rjmp	.+8      	; 0x22fe <main+0xc4>
    22f6:	0f 5f       	subi	r16, 0xFF	; 255
    22f8:	1f 4f       	sbci	r17, 0xFF	; 255
    22fa:	f0 92 bb 26 	sts	0x26BB, r15
    22fe:	80 91 bb 26 	lds	r24, 0x26BB
    2302:	88 23       	and	r24, r24
    2304:	81 f0       	breq	.+32     	; 0x2326 <main+0xec>
    2306:	0e 94 1e 10 	call	0x203c	; 0x203c <ssd1306_clear>
    230a:	10 92 bb 26 	sts	0x26BB, r1
    230e:	00 ff       	sbrs	r16, 0
    2310:	08 c0       	rjmp	.+16     	; 0x2322 <main+0xe8>
    2312:	49 81       	ldd	r20, Y+1	; 0x01
    2314:	5a 81       	ldd	r21, Y+2	; 0x02
    2316:	6b 81       	ldd	r22, Y+3	; 0x03
    2318:	7c 81       	ldd	r23, Y+4	; 0x04
    231a:	8d 81       	ldd	r24, Y+5	; 0x05
    231c:	0e 94 76 10 	call	0x20ec	; 0x20ec <printLogo>
    2320:	02 c0       	rjmp	.+4      	; 0x2326 <main+0xec>
    2322:	0e 94 aa 10 	call	0x2154	; 0x2154 <printPower>
    2326:	80 91 bc 26 	lds	r24, 0x26BC
    232a:	80 93 ba 26 	sts	0x26BA, r24
    232e:	65 e3       	ldi	r22, 0x35	; 53
    2330:	72 e8       	ldi	r23, 0x82	; 130
    2332:	80 e0       	ldi	r24, 0x00	; 0
    2334:	90 e0       	ldi	r25, 0x00	; 0
    2336:	0e 94 f1 0f 	call	0x1fe2	; 0x1fe2 <__portable_avr_delay_cycles>
    233a:	d0 cf       	rjmp	.-96     	; 0x22dc <main+0xa2>

0000233c <__udivmodsi4>:
    233c:	a1 e2       	ldi	r26, 0x21	; 33
    233e:	1a 2e       	mov	r1, r26
    2340:	aa 1b       	sub	r26, r26
    2342:	bb 1b       	sub	r27, r27
    2344:	fd 01       	movw	r30, r26
    2346:	0d c0       	rjmp	.+26     	; 0x2362 <__udivmodsi4_ep>

00002348 <__udivmodsi4_loop>:
    2348:	aa 1f       	adc	r26, r26
    234a:	bb 1f       	adc	r27, r27
    234c:	ee 1f       	adc	r30, r30
    234e:	ff 1f       	adc	r31, r31
    2350:	a2 17       	cp	r26, r18
    2352:	b3 07       	cpc	r27, r19
    2354:	e4 07       	cpc	r30, r20
    2356:	f5 07       	cpc	r31, r21
    2358:	20 f0       	brcs	.+8      	; 0x2362 <__udivmodsi4_ep>
    235a:	a2 1b       	sub	r26, r18
    235c:	b3 0b       	sbc	r27, r19
    235e:	e4 0b       	sbc	r30, r20
    2360:	f5 0b       	sbc	r31, r21

00002362 <__udivmodsi4_ep>:
    2362:	66 1f       	adc	r22, r22
    2364:	77 1f       	adc	r23, r23
    2366:	88 1f       	adc	r24, r24
    2368:	99 1f       	adc	r25, r25
    236a:	1a 94       	dec	r1
    236c:	69 f7       	brne	.-38     	; 0x2348 <__udivmodsi4_loop>
    236e:	60 95       	com	r22
    2370:	70 95       	com	r23
    2372:	80 95       	com	r24
    2374:	90 95       	com	r25
    2376:	9b 01       	movw	r18, r22
    2378:	ac 01       	movw	r20, r24
    237a:	bd 01       	movw	r22, r26
    237c:	cf 01       	movw	r24, r30
    237e:	08 95       	ret

00002380 <__divmodsi4>:
    2380:	05 2e       	mov	r0, r21
    2382:	97 fb       	bst	r25, 7
    2384:	1e f4       	brtc	.+6      	; 0x238c <__divmodsi4+0xc>
    2386:	00 94       	com	r0
    2388:	0e 94 d7 11 	call	0x23ae	; 0x23ae <__negsi2>
    238c:	57 fd       	sbrc	r21, 7
    238e:	07 d0       	rcall	.+14     	; 0x239e <__divmodsi4_neg2>
    2390:	0e 94 9e 11 	call	0x233c	; 0x233c <__udivmodsi4>
    2394:	07 fc       	sbrc	r0, 7
    2396:	03 d0       	rcall	.+6      	; 0x239e <__divmodsi4_neg2>
    2398:	4e f4       	brtc	.+18     	; 0x23ac <__divmodsi4_exit>
    239a:	0c 94 d7 11 	jmp	0x23ae	; 0x23ae <__negsi2>

0000239e <__divmodsi4_neg2>:
    239e:	50 95       	com	r21
    23a0:	40 95       	com	r20
    23a2:	30 95       	com	r19
    23a4:	21 95       	neg	r18
    23a6:	3f 4f       	sbci	r19, 0xFF	; 255
    23a8:	4f 4f       	sbci	r20, 0xFF	; 255
    23aa:	5f 4f       	sbci	r21, 0xFF	; 255

000023ac <__divmodsi4_exit>:
    23ac:	08 95       	ret

000023ae <__negsi2>:
    23ae:	90 95       	com	r25
    23b0:	80 95       	com	r24
    23b2:	70 95       	com	r23
    23b4:	61 95       	neg	r22
    23b6:	7f 4f       	sbci	r23, 0xFF	; 255
    23b8:	8f 4f       	sbci	r24, 0xFF	; 255
    23ba:	9f 4f       	sbci	r25, 0xFF	; 255
    23bc:	08 95       	ret

000023be <__fixsfsi>:
    23be:	04 d0       	rcall	.+8      	; 0x23c8 <__fixunssfsi>
    23c0:	68 94       	set
    23c2:	b1 11       	cpse	r27, r1
    23c4:	8d c0       	rjmp	.+282    	; 0x24e0 <__fp_szero>
    23c6:	08 95       	ret

000023c8 <__fixunssfsi>:
    23c8:	70 d0       	rcall	.+224    	; 0x24aa <__fp_splitA>
    23ca:	88 f0       	brcs	.+34     	; 0x23ee <__fixunssfsi+0x26>
    23cc:	9f 57       	subi	r25, 0x7F	; 127
    23ce:	90 f0       	brcs	.+36     	; 0x23f4 <__fixunssfsi+0x2c>
    23d0:	b9 2f       	mov	r27, r25
    23d2:	99 27       	eor	r25, r25
    23d4:	b7 51       	subi	r27, 0x17	; 23
    23d6:	a0 f0       	brcs	.+40     	; 0x2400 <__fixunssfsi+0x38>
    23d8:	d1 f0       	breq	.+52     	; 0x240e <__fixunssfsi+0x46>
    23da:	66 0f       	add	r22, r22
    23dc:	77 1f       	adc	r23, r23
    23de:	88 1f       	adc	r24, r24
    23e0:	99 1f       	adc	r25, r25
    23e2:	1a f0       	brmi	.+6      	; 0x23ea <__fixunssfsi+0x22>
    23e4:	ba 95       	dec	r27
    23e6:	c9 f7       	brne	.-14     	; 0x23da <__fixunssfsi+0x12>
    23e8:	12 c0       	rjmp	.+36     	; 0x240e <__fixunssfsi+0x46>
    23ea:	b1 30       	cpi	r27, 0x01	; 1
    23ec:	81 f0       	breq	.+32     	; 0x240e <__fixunssfsi+0x46>
    23ee:	77 d0       	rcall	.+238    	; 0x24de <__fp_zero>
    23f0:	b1 e0       	ldi	r27, 0x01	; 1
    23f2:	08 95       	ret
    23f4:	74 c0       	rjmp	.+232    	; 0x24de <__fp_zero>
    23f6:	67 2f       	mov	r22, r23
    23f8:	78 2f       	mov	r23, r24
    23fa:	88 27       	eor	r24, r24
    23fc:	b8 5f       	subi	r27, 0xF8	; 248
    23fe:	39 f0       	breq	.+14     	; 0x240e <__fixunssfsi+0x46>
    2400:	b9 3f       	cpi	r27, 0xF9	; 249
    2402:	cc f3       	brlt	.-14     	; 0x23f6 <__fixunssfsi+0x2e>
    2404:	86 95       	lsr	r24
    2406:	77 95       	ror	r23
    2408:	67 95       	ror	r22
    240a:	b3 95       	inc	r27
    240c:	d9 f7       	brne	.-10     	; 0x2404 <__fixunssfsi+0x3c>
    240e:	3e f4       	brtc	.+14     	; 0x241e <__fixunssfsi+0x56>
    2410:	90 95       	com	r25
    2412:	80 95       	com	r24
    2414:	70 95       	com	r23
    2416:	61 95       	neg	r22
    2418:	7f 4f       	sbci	r23, 0xFF	; 255
    241a:	8f 4f       	sbci	r24, 0xFF	; 255
    241c:	9f 4f       	sbci	r25, 0xFF	; 255
    241e:	08 95       	ret

00002420 <__floatunsisf>:
    2420:	e8 94       	clt
    2422:	09 c0       	rjmp	.+18     	; 0x2436 <__floatsisf+0x12>

00002424 <__floatsisf>:
    2424:	97 fb       	bst	r25, 7
    2426:	3e f4       	brtc	.+14     	; 0x2436 <__floatsisf+0x12>
    2428:	90 95       	com	r25
    242a:	80 95       	com	r24
    242c:	70 95       	com	r23
    242e:	61 95       	neg	r22
    2430:	7f 4f       	sbci	r23, 0xFF	; 255
    2432:	8f 4f       	sbci	r24, 0xFF	; 255
    2434:	9f 4f       	sbci	r25, 0xFF	; 255
    2436:	99 23       	and	r25, r25
    2438:	a9 f0       	breq	.+42     	; 0x2464 <__floatsisf+0x40>
    243a:	f9 2f       	mov	r31, r25
    243c:	96 e9       	ldi	r25, 0x96	; 150
    243e:	bb 27       	eor	r27, r27
    2440:	93 95       	inc	r25
    2442:	f6 95       	lsr	r31
    2444:	87 95       	ror	r24
    2446:	77 95       	ror	r23
    2448:	67 95       	ror	r22
    244a:	b7 95       	ror	r27
    244c:	f1 11       	cpse	r31, r1
    244e:	f8 cf       	rjmp	.-16     	; 0x2440 <__floatsisf+0x1c>
    2450:	fa f4       	brpl	.+62     	; 0x2490 <__floatsisf+0x6c>
    2452:	bb 0f       	add	r27, r27
    2454:	11 f4       	brne	.+4      	; 0x245a <__floatsisf+0x36>
    2456:	60 ff       	sbrs	r22, 0
    2458:	1b c0       	rjmp	.+54     	; 0x2490 <__floatsisf+0x6c>
    245a:	6f 5f       	subi	r22, 0xFF	; 255
    245c:	7f 4f       	sbci	r23, 0xFF	; 255
    245e:	8f 4f       	sbci	r24, 0xFF	; 255
    2460:	9f 4f       	sbci	r25, 0xFF	; 255
    2462:	16 c0       	rjmp	.+44     	; 0x2490 <__floatsisf+0x6c>
    2464:	88 23       	and	r24, r24
    2466:	11 f0       	breq	.+4      	; 0x246c <__floatsisf+0x48>
    2468:	96 e9       	ldi	r25, 0x96	; 150
    246a:	11 c0       	rjmp	.+34     	; 0x248e <__floatsisf+0x6a>
    246c:	77 23       	and	r23, r23
    246e:	21 f0       	breq	.+8      	; 0x2478 <__floatsisf+0x54>
    2470:	9e e8       	ldi	r25, 0x8E	; 142
    2472:	87 2f       	mov	r24, r23
    2474:	76 2f       	mov	r23, r22
    2476:	05 c0       	rjmp	.+10     	; 0x2482 <__floatsisf+0x5e>
    2478:	66 23       	and	r22, r22
    247a:	71 f0       	breq	.+28     	; 0x2498 <__floatsisf+0x74>
    247c:	96 e8       	ldi	r25, 0x86	; 134
    247e:	86 2f       	mov	r24, r22
    2480:	70 e0       	ldi	r23, 0x00	; 0
    2482:	60 e0       	ldi	r22, 0x00	; 0
    2484:	2a f0       	brmi	.+10     	; 0x2490 <__floatsisf+0x6c>
    2486:	9a 95       	dec	r25
    2488:	66 0f       	add	r22, r22
    248a:	77 1f       	adc	r23, r23
    248c:	88 1f       	adc	r24, r24
    248e:	da f7       	brpl	.-10     	; 0x2486 <__floatsisf+0x62>
    2490:	88 0f       	add	r24, r24
    2492:	96 95       	lsr	r25
    2494:	87 95       	ror	r24
    2496:	97 f9       	bld	r25, 7
    2498:	08 95       	ret

0000249a <__fp_split3>:
    249a:	57 fd       	sbrc	r21, 7
    249c:	90 58       	subi	r25, 0x80	; 128
    249e:	44 0f       	add	r20, r20
    24a0:	55 1f       	adc	r21, r21
    24a2:	59 f0       	breq	.+22     	; 0x24ba <__fp_splitA+0x10>
    24a4:	5f 3f       	cpi	r21, 0xFF	; 255
    24a6:	71 f0       	breq	.+28     	; 0x24c4 <__fp_splitA+0x1a>
    24a8:	47 95       	ror	r20

000024aa <__fp_splitA>:
    24aa:	88 0f       	add	r24, r24
    24ac:	97 fb       	bst	r25, 7
    24ae:	99 1f       	adc	r25, r25
    24b0:	61 f0       	breq	.+24     	; 0x24ca <__fp_splitA+0x20>
    24b2:	9f 3f       	cpi	r25, 0xFF	; 255
    24b4:	79 f0       	breq	.+30     	; 0x24d4 <__fp_splitA+0x2a>
    24b6:	87 95       	ror	r24
    24b8:	08 95       	ret
    24ba:	12 16       	cp	r1, r18
    24bc:	13 06       	cpc	r1, r19
    24be:	14 06       	cpc	r1, r20
    24c0:	55 1f       	adc	r21, r21
    24c2:	f2 cf       	rjmp	.-28     	; 0x24a8 <__fp_split3+0xe>
    24c4:	46 95       	lsr	r20
    24c6:	f1 df       	rcall	.-30     	; 0x24aa <__fp_splitA>
    24c8:	08 c0       	rjmp	.+16     	; 0x24da <__fp_splitA+0x30>
    24ca:	16 16       	cp	r1, r22
    24cc:	17 06       	cpc	r1, r23
    24ce:	18 06       	cpc	r1, r24
    24d0:	99 1f       	adc	r25, r25
    24d2:	f1 cf       	rjmp	.-30     	; 0x24b6 <__fp_splitA+0xc>
    24d4:	86 95       	lsr	r24
    24d6:	71 05       	cpc	r23, r1
    24d8:	61 05       	cpc	r22, r1
    24da:	08 94       	sec
    24dc:	08 95       	ret

000024de <__fp_zero>:
    24de:	e8 94       	clt

000024e0 <__fp_szero>:
    24e0:	bb 27       	eor	r27, r27
    24e2:	66 27       	eor	r22, r22
    24e4:	77 27       	eor	r23, r23
    24e6:	cb 01       	movw	r24, r22
    24e8:	97 f9       	bld	r25, 7
    24ea:	08 95       	ret

000024ec <round>:
    24ec:	de df       	rcall	.-68     	; 0x24aa <__fp_splitA>
    24ee:	e0 f0       	brcs	.+56     	; 0x2528 <round+0x3c>
    24f0:	9e 37       	cpi	r25, 0x7E	; 126
    24f2:	d8 f0       	brcs	.+54     	; 0x252a <round+0x3e>
    24f4:	96 39       	cpi	r25, 0x96	; 150
    24f6:	b8 f4       	brcc	.+46     	; 0x2526 <round+0x3a>
    24f8:	9e 38       	cpi	r25, 0x8E	; 142
    24fa:	48 f4       	brcc	.+18     	; 0x250e <round+0x22>
    24fc:	67 2f       	mov	r22, r23
    24fe:	78 2f       	mov	r23, r24
    2500:	88 27       	eor	r24, r24
    2502:	98 5f       	subi	r25, 0xF8	; 248
    2504:	f9 cf       	rjmp	.-14     	; 0x24f8 <round+0xc>
    2506:	86 95       	lsr	r24
    2508:	77 95       	ror	r23
    250a:	67 95       	ror	r22
    250c:	93 95       	inc	r25
    250e:	95 39       	cpi	r25, 0x95	; 149
    2510:	d0 f3       	brcs	.-12     	; 0x2506 <round+0x1a>
    2512:	b6 2f       	mov	r27, r22
    2514:	b1 70       	andi	r27, 0x01	; 1
    2516:	6b 0f       	add	r22, r27
    2518:	71 1d       	adc	r23, r1
    251a:	81 1d       	adc	r24, r1
    251c:	20 f4       	brcc	.+8      	; 0x2526 <round+0x3a>
    251e:	87 95       	ror	r24
    2520:	77 95       	ror	r23
    2522:	67 95       	ror	r22
    2524:	93 95       	inc	r25
    2526:	02 c0       	rjmp	.+4      	; 0x252c <__fp_mintl>
    2528:	1c c0       	rjmp	.+56     	; 0x2562 <__fp_mpack>
    252a:	da cf       	rjmp	.-76     	; 0x24e0 <__fp_szero>

0000252c <__fp_mintl>:
    252c:	88 23       	and	r24, r24
    252e:	71 f4       	brne	.+28     	; 0x254c <__fp_mintl+0x20>
    2530:	77 23       	and	r23, r23
    2532:	21 f0       	breq	.+8      	; 0x253c <__fp_mintl+0x10>
    2534:	98 50       	subi	r25, 0x08	; 8
    2536:	87 2b       	or	r24, r23
    2538:	76 2f       	mov	r23, r22
    253a:	07 c0       	rjmp	.+14     	; 0x254a <__fp_mintl+0x1e>
    253c:	66 23       	and	r22, r22
    253e:	11 f4       	brne	.+4      	; 0x2544 <__fp_mintl+0x18>
    2540:	99 27       	eor	r25, r25
    2542:	0d c0       	rjmp	.+26     	; 0x255e <__fp_mintl+0x32>
    2544:	90 51       	subi	r25, 0x10	; 16
    2546:	86 2b       	or	r24, r22
    2548:	70 e0       	ldi	r23, 0x00	; 0
    254a:	60 e0       	ldi	r22, 0x00	; 0
    254c:	2a f0       	brmi	.+10     	; 0x2558 <__fp_mintl+0x2c>
    254e:	9a 95       	dec	r25
    2550:	66 0f       	add	r22, r22
    2552:	77 1f       	adc	r23, r23
    2554:	88 1f       	adc	r24, r24
    2556:	da f7       	brpl	.-10     	; 0x254e <__fp_mintl+0x22>
    2558:	88 0f       	add	r24, r24
    255a:	96 95       	lsr	r25
    255c:	87 95       	ror	r24
    255e:	97 f9       	bld	r25, 7
    2560:	08 95       	ret

00002562 <__fp_mpack>:
    2562:	9f 3f       	cpi	r25, 0xFF	; 255
    2564:	31 f0       	breq	.+12     	; 0x2572 <__fp_mpack_finite+0xc>

00002566 <__fp_mpack_finite>:
    2566:	91 50       	subi	r25, 0x01	; 1
    2568:	20 f4       	brcc	.+8      	; 0x2572 <__fp_mpack_finite+0xc>
    256a:	87 95       	ror	r24
    256c:	77 95       	ror	r23
    256e:	67 95       	ror	r22
    2570:	b7 95       	ror	r27
    2572:	88 0f       	add	r24, r24
    2574:	91 1d       	adc	r25, r1
    2576:	96 95       	lsr	r25
    2578:	87 95       	ror	r24
    257a:	97 f9       	bld	r25, 7
    257c:	08 95       	ret

0000257e <memcpy>:
    257e:	fb 01       	movw	r30, r22
    2580:	dc 01       	movw	r26, r24
    2582:	02 c0       	rjmp	.+4      	; 0x2588 <memcpy+0xa>
    2584:	01 90       	ld	r0, Z+
    2586:	0d 92       	st	X+, r0
    2588:	41 50       	subi	r20, 0x01	; 1
    258a:	50 40       	sbci	r21, 0x00	; 0
    258c:	d8 f7       	brcc	.-10     	; 0x2584 <memcpy+0x6>
    258e:	08 95       	ret

00002590 <strcpy>:
    2590:	fb 01       	movw	r30, r22
    2592:	dc 01       	movw	r26, r24
    2594:	01 90       	ld	r0, Z+
    2596:	0d 92       	st	X+, r0
    2598:	00 20       	and	r0, r0
    259a:	e1 f7       	brne	.-8      	; 0x2594 <strcpy+0x4>
    259c:	08 95       	ret

0000259e <__itoa_ncheck>:
    259e:	bb 27       	eor	r27, r27
    25a0:	4a 30       	cpi	r20, 0x0A	; 10
    25a2:	31 f4       	brne	.+12     	; 0x25b0 <__itoa_ncheck+0x12>
    25a4:	99 23       	and	r25, r25
    25a6:	22 f4       	brpl	.+8      	; 0x25b0 <__itoa_ncheck+0x12>
    25a8:	bd e2       	ldi	r27, 0x2D	; 45
    25aa:	90 95       	com	r25
    25ac:	81 95       	neg	r24
    25ae:	9f 4f       	sbci	r25, 0xFF	; 255
    25b0:	0c 94 db 12 	jmp	0x25b6	; 0x25b6 <__utoa_common>

000025b4 <__utoa_ncheck>:
    25b4:	bb 27       	eor	r27, r27

000025b6 <__utoa_common>:
    25b6:	fb 01       	movw	r30, r22
    25b8:	55 27       	eor	r21, r21
    25ba:	aa 27       	eor	r26, r26
    25bc:	88 0f       	add	r24, r24
    25be:	99 1f       	adc	r25, r25
    25c0:	aa 1f       	adc	r26, r26
    25c2:	a4 17       	cp	r26, r20
    25c4:	10 f0       	brcs	.+4      	; 0x25ca <__utoa_common+0x14>
    25c6:	a4 1b       	sub	r26, r20
    25c8:	83 95       	inc	r24
    25ca:	50 51       	subi	r21, 0x10	; 16
    25cc:	b9 f7       	brne	.-18     	; 0x25bc <__utoa_common+0x6>
    25ce:	a0 5d       	subi	r26, 0xD0	; 208
    25d0:	aa 33       	cpi	r26, 0x3A	; 58
    25d2:	08 f0       	brcs	.+2      	; 0x25d6 <__utoa_common+0x20>
    25d4:	a9 5d       	subi	r26, 0xD9	; 217
    25d6:	a1 93       	st	Z+, r26
    25d8:	00 97       	sbiw	r24, 0x00	; 0
    25da:	79 f7       	brne	.-34     	; 0x25ba <__utoa_common+0x4>
    25dc:	b1 11       	cpse	r27, r1
    25de:	b1 93       	st	Z+, r27
    25e0:	11 92       	st	Z+, r1
    25e2:	cb 01       	movw	r24, r22
    25e4:	0c 94 f4 12 	jmp	0x25e8	; 0x25e8 <strrev>

000025e8 <strrev>:
    25e8:	dc 01       	movw	r26, r24
    25ea:	fc 01       	movw	r30, r24
    25ec:	67 2f       	mov	r22, r23
    25ee:	71 91       	ld	r23, Z+
    25f0:	77 23       	and	r23, r23
    25f2:	e1 f7       	brne	.-8      	; 0x25ec <strrev+0x4>
    25f4:	32 97       	sbiw	r30, 0x02	; 2
    25f6:	04 c0       	rjmp	.+8      	; 0x2600 <strrev+0x18>
    25f8:	7c 91       	ld	r23, X
    25fa:	6d 93       	st	X+, r22
    25fc:	70 83       	st	Z, r23
    25fe:	62 91       	ld	r22, -Z
    2600:	ae 17       	cp	r26, r30
    2602:	bf 07       	cpc	r27, r31
    2604:	c8 f3       	brcs	.-14     	; 0x25f8 <strrev+0x10>
    2606:	08 95       	ret

00002608 <_exit>:
    2608:	f8 94       	cli

0000260a <__stop_program>:
    260a:	ff cf       	rjmp	.-2      	; 0x260a <__stop_program>

Disassembly of section .BOOT:

0000260c <nvm_common_spm>:
    260c:	9b b7       	in	r25, 0x3b	; 59
    260e:	8b bf       	out	0x3b, r24	; 59
    2610:	fb 01       	movw	r30, r22
    2612:	80 91 ca 01 	lds	r24, 0x01CA
    2616:	40 93 ca 01 	sts	0x01CA, r20
    261a:	7d e9       	ldi	r23, 0x9D	; 157
    261c:	70 93 34 00 	sts	0x0034, r23
    2620:	e8 95       	spm
    2622:	80 93 ca 01 	sts	0x01CA, r24
    2626:	9b bf       	out	0x3b, r25	; 59
    2628:	08 95       	ret

0000262a <nvm_flash_load_word_to_buffer>:
    262a:	20 91 cf 01 	lds	r18, 0x01CF
    262e:	27 fd       	sbrc	r18, 7
    2630:	fc cf       	rjmp	.-8      	; 0x262a <nvm_flash_load_word_to_buffer>
    2632:	9b b7       	in	r25, 0x3b	; 59
    2634:	8b bf       	out	0x3b, r24	; 59
    2636:	fb 01       	movw	r30, r22
    2638:	80 91 ca 01 	lds	r24, 0x01CA
    263c:	23 e2       	ldi	r18, 0x23	; 35
    263e:	20 93 ca 01 	sts	0x01CA, r18
    2642:	0a 01       	movw	r0, r20
    2644:	e8 95       	spm
    2646:	11 24       	eor	r1, r1
    2648:	80 93 ca 01 	sts	0x01CA, r24
    264c:	9b bf       	out	0x3b, r25	; 59
    264e:	08 95       	ret
